(imatplotlib.font_manager
FontManager
p1
(dp2
S'afm_lookup_cache'
p3
(dp4
sS'ttflist'
p5
(lp6
ccopy_reg
_reconstructor
p7
(cmatplotlib.font_manager
FontEntry
p8
c__builtin__
object
p9
NtRp10
(dp11
S'style'
p12
S'normal'
p13
sS'name'
p14
S'cmb10'
p15
sS'weight'
p16
I400
sS'stretch'
p17
g13
sS'variant'
p18
g13
sS'fname'
p19
S'/usr/share/matplotlib/mpl-data/fonts/ttf/cmb10.ttf'
p20
sS'size'
p21
S'scalable'
p22
sbag7
(g8
g9
NtRp23
(dp24
g12
g13
sg14
S'cmex10'
p25
sg16
I400
sg17
g13
sg18
g13
sg19
S'/usr/share/matplotlib/mpl-data/fonts/ttf/cmex10.ttf'
p26
sg21
g22
sbag7
(g8
g9
NtRp27
(dp28
g12
S'italic'
p29
sg14
S'STIXNonUnicode'
p30
sg16
I400
sg17
g13
sg18
g13
sg19
S'/usr/share/matplotlib/mpl-data/fonts/ttf/STIXNonUniIta.ttf'
p31
sg21
g22
sbag7
(g8
g9
NtRp32
(dp33
g12
g13
sg14
S'STIXNonUnicode'
p34
sg16
I400
sg17
g13
sg18
g13
sg19
S'/usr/share/matplotlib/mpl-data/fonts/ttf/STIXNonUni.ttf'
p35
sg21
g22
sbag7
(g8
g9
NtRp36
(dp37
g12
g13
sg14
S'STIXSizeThreeSym'
p38
sg16
I400
sg17
g13
sg18
g13
sg19
S'/usr/share/matplotlib/mpl-data/fonts/ttf/STIXSizThreeSymReg.ttf'
p39
sg21
g22
sbag7
(g8
g9
NtRp40
(dp41
g12
g13
sg14
S'STIXSizeTwoSym'
p42
sg16
I700
sg17
g13
sg18
g13
sg19
S'/usr/share/matplotlib/mpl-data/fonts/ttf/STIXSizTwoSymBol.ttf'
p43
sg21
g22
sbag7
(g8
g9
NtRp44
(dp45
g12
g13
sg14
S'cmtt10'
p46
sg16
I400
sg17
g13
sg18
g13
sg19
S'/usr/share/matplotlib/mpl-data/fonts/ttf/cmtt10.ttf'
p47
sg21
g22
sbag7
(g8
g9
NtRp48
(dp49
g12
g13
sg14
S'STIXGeneral'
p50
sg16
I400
sg17
g13
sg18
g13
sg19
S'/usr/share/matplotlib/mpl-data/fonts/ttf/STIXGeneral.ttf'
p51
sg21
g22
sbag7
(g8
g9
NtRp52
(dp53
g12
g29
sg14
S'STIXNonUnicode'
p54
sg16
I700
sg17
g13
sg18
g13
sg19
S'/usr/share/matplotlib/mpl-data/fonts/ttf/STIXNonUniBolIta.ttf'
p55
sg21
g22
sbag7
(g8
g9
NtRp56
(dp57
g12
g13
sg14
S'STIXSizeFiveSym'
p58
sg16
I400
sg17
g13
sg18
g13
sg19
S'/usr/share/matplotlib/mpl-data/fonts/ttf/STIXSizFiveSymReg.ttf'
p59
sg21
g22
sbag7
(g8
g9
NtRp60
(dp61
g12
g13
sg14
S'STIXSizeOneSym'
p62
sg16
I700
sg17
g13
sg18
g13
sg19
S'/usr/share/matplotlib/mpl-data/fonts/ttf/STIXSizOneSymBol.ttf'
p63
sg21
g22
sbag7
(g8
g9
NtRp64
(dp65
g12
g13
sg14
S'STIXGeneral'
p66
sg16
I700
sg17
g13
sg18
g13
sg19
S'/usr/share/matplotlib/mpl-data/fonts/ttf/STIXGeneralBol.ttf'
p67
sg21
g22
sbag7
(g8
g9
NtRp68
(dp69
g12
g13
sg14
S'cmr10'
p70
sg16
I400
sg17
g13
sg18
g13
sg19
S'/usr/share/matplotlib/mpl-data/fonts/ttf/cmr10.ttf'
p71
sg21
g22
sbag7
(g8
g9
NtRp72
(dp73
g12
g13
sg14
S'STIXSizeTwoSym'
p74
sg16
I400
sg17
g13
sg18
g13
sg19
S'/usr/share/matplotlib/mpl-data/fonts/ttf/STIXSizTwoSymReg.ttf'
p75
sg21
g22
sbag7
(g8
g9
NtRp76
(dp77
g12
g13
sg14
S'STIXSizeOneSym'
p78
sg16
I400
sg17
g13
sg18
g13
sg19
S'/usr/share/matplotlib/mpl-data/fonts/ttf/STIXSizOneSymReg.ttf'
p79
sg21
g22
sbag7
(g8
g9
NtRp80
(dp81
g12
g13
sg14
S'cmsy10'
p82
sg16
I400
sg17
g13
sg18
g13
sg19
S'/usr/share/matplotlib/mpl-data/fonts/ttf/cmsy10.ttf'
p83
sg21
g22
sbag7
(g8
g9
NtRp84
(dp85
g12
g13
sg14
S'STIXSizeThreeSym'
p86
sg16
I700
sg17
g13
sg18
g13
sg19
S'/usr/share/matplotlib/mpl-data/fonts/ttf/STIXSizThreeSymBol.ttf'
p87
sg21
g22
sbag7
(g8
g9
NtRp88
(dp89
g12
g13
sg14
S'cmss10'
p90
sg16
I400
sg17
g13
sg18
g13
sg19
S'/usr/share/matplotlib/mpl-data/fonts/ttf/cmss10.ttf'
p91
sg21
g22
sbag7
(g8
g9
NtRp92
(dp93
g12
g13
sg14
S'STIXSizeFourSym'
p94
sg16
I700
sg17
g13
sg18
g13
sg19
S'/usr/share/matplotlib/mpl-data/fonts/ttf/STIXSizFourSymBol.ttf'
p95
sg21
g22
sbag7
(g8
g9
NtRp96
(dp97
g12
g29
sg14
S'STIXGeneral'
p98
sg16
I400
sg17
g13
sg18
g13
sg19
S'/usr/share/matplotlib/mpl-data/fonts/ttf/STIXGeneralItalic.ttf'
p99
sg21
g22
sbag7
(g8
g9
NtRp100
(dp101
g12
g13
sg14
S'cmmi10'
p102
sg16
I400
sg17
g13
sg18
g13
sg19
S'/usr/share/matplotlib/mpl-data/fonts/ttf/cmmi10.ttf'
p103
sg21
g22
sbag7
(g8
g9
NtRp104
(dp105
g12
g13
sg14
S'STIXNonUnicode'
p106
sg16
I700
sg17
g13
sg18
g13
sg19
S'/usr/share/matplotlib/mpl-data/fonts/ttf/STIXNonUniBol.ttf'
p107
sg21
g22
sbag7
(g8
g9
NtRp108
(dp109
g12
g29
sg14
S'STIXGeneral'
p110
sg16
I700
sg17
g13
sg18
g13
sg19
S'/usr/share/matplotlib/mpl-data/fonts/ttf/STIXGeneralBolIta.ttf'
p111
sg21
g22
sbag7
(g8
g9
NtRp112
(dp113
g12
g13
sg14
S'STIXSizeFourSym'
p114
sg16
I400
sg17
g13
sg18
g13
sg19
S'/usr/share/matplotlib/mpl-data/fonts/ttf/STIXSizFourSymReg.ttf'
p115
sg21
g22
sbag7
(g8
g9
NtRp116
(dp117
g12
g13
sg14
S'KacstTitle'
p118
sg16
I400
sg17
g13
sg18
g13
sg19
S'/usr/share/fonts/truetype/kacst/KacstTitle.ttf'
p119
sg21
g22
sbag7
(g8
g9
NtRp120
(dp121
g12
S'oblique'
p122
sg14
S'Tlwg Typo'
p123
sg16
I400
sg17
g13
sg18
g13
sg19
S'/usr/share/fonts/truetype/tlwg/TlwgTypo-Oblique.ttf'
p124
sg21
g22
sbag7
(g8
g9
NtRp125
(dp126
g12
g13
sg14
S'Mallige'
p127
sg16
I700
sg17
g13
sg18
g13
sg19
S'/usr/share/fonts/truetype/ttf-indic-fonts-core/Malige-b.ttf'
p128
sg21
g22
sbag7
(g8
g9
NtRp129
(dp130
g12
g13
sg14
S'Umpush'
p131
sg16
I400
sg17
g13
sg18
g13
sg19
S'/usr/share/fonts/truetype/tlwg/Umpush.ttf'
p132
sg21
g22
sbag7
(g8
g9
NtRp133
(dp134
g12
g13
sg14
S'Garuda'
p135
sg16
I700
sg17
g13
sg18
g13
sg19
S'/usr/share/fonts/truetype/tlwg/Garuda-Bold.ttf'
p136
sg21
g22
sbag7
(g8
g9
NtRp137
(dp138
g12
g122
sg14
S'Tlwg Typist'
p139
sg16
I700
sg17
g13
sg18
g13
sg19
S'/usr/share/fonts/truetype/tlwg/TlwgTypist-BoldOblique.ttf'
p140
sg21
g22
sbag7
(g8
g9
NtRp141
(dp142
g12
g29
sg14
S'rsfs10'
p143
sg16
I400
sg17
g13
sg18
g13
sg19
S'/usr/share/fonts/truetype/ttf-lyx/rsfs10.ttf'
p144
sg21
g22
sbag7
(g8
g9
NtRp145
(dp146
g12
g122
sg14
S'Loma'
p147
sg16
I400
sg17
g13
sg18
g13
sg19
S'/usr/share/fonts/truetype/tlwg/Loma-Oblique.ttf'
p148
sg21
g22
sbag7
(g8
g9
NtRp149
(dp150
g12
g13
sg14
S'msam10'
p151
sg16
I400
sg17
g13
sg18
g13
sg19
S'/usr/share/fonts/truetype/ttf-lyx/msam10.ttf'
p152
sg21
g22
sbag7
(g8
g9
NtRp153
(dp154
g12
g122
sg14
S'Norasi'
p155
sg16
I400
sg17
g13
sg18
g13
sg19
S'/usr/share/fonts/truetype/tlwg/Norasi-Oblique.ttf'
p156
sg21
g22
sbag7
(g8
g9
NtRp157
(dp158
g12
g13
sg14
S'DejaVu Sans Mono'
p159
sg16
I400
sg17
g13
sg18
g13
sg19
S'/usr/share/fonts/truetype/ttf-dejavu/DejaVuSansMono.ttf'
p160
sg21
g22
sbag7
(g8
g9
NtRp161
(dp162
g12
g13
sg14
S'Meera'
p163
sg16
I400
sg17
g13
sg18
g13
sg19
S'/usr/share/fonts/truetype/ttf-indic-fonts-core/Meera_04.ttf'
p164
sg21
g22
sbag7
(g8
g9
NtRp165
(dp166
g12
g13
sg14
S'TakaoPGothic'
p167
sg16
I400
sg17
g13
sg18
g13
sg19
S'/usr/share/fonts/truetype/fonts-japanese-gothic.ttf'
p168
sg21
g22
sbag7
(g8
g9
NtRp169
(dp170
g12
g13
sg14
S'Liberation Mono'
p171
sg16
I700
sg17
g13
sg18
g13
sg19
S'/usr/share/fonts/truetype/liberation/LiberationMono-Bold.ttf'
p172
sg21
g22
sbag7
(g8
g9
NtRp173
(dp174
g12
g13
sg14
S'UnDotum'
p175
sg16
I400
sg17
g13
sg18
g13
sg19
S'/usr/share/fonts/truetype/unfonts-core/UnDotum.ttf'
p176
sg21
g22
sbag7
(g8
g9
NtRp177
(dp178
g12
g122
sg14
S'Umpush'
p179
sg16
I200
sg17
g13
sg18
g13
sg19
S'/usr/share/fonts/truetype/tlwg/Umpush-LightOblique.ttf'
p180
sg21
g22
sbag7
(g8
g9
NtRp181
(dp182
g12
g13
sg14
S'FreeSerif'
p183
sg16
I700
sg17
g13
sg18
g13
sg19
S'/usr/share/fonts/truetype/freefont/FreeSerifBold.ttf'
p184
sg21
g22
sbag7
(g8
g9
NtRp185
(dp186
g12
g122
sg14
S'FreeMono'
p187
sg16
I700
sg17
g13
sg18
g13
sg19
S'/usr/share/fonts/truetype/freefont/FreeMonoBoldOblique.ttf'
p188
sg21
g22
sbag7
(g8
g9
NtRp189
(dp190
g12
g13
sg14
S'Tlwg Typo'
p191
sg16
I400
sg17
g13
sg18
g13
sg19
S'/usr/share/fonts/truetype/tlwg/TlwgTypo.ttf'
p192
sg21
g22
sbag7
(g8
g9
NtRp193
(dp194
g12
g13
sg14
S'Rachana'
p195
sg16
I400
sg17
g13
sg18
g13
sg19
S'/usr/share/fonts/truetype/ttf-indic-fonts-core/Rachana_04.ttf'
p196
sg21
g22
sbag7
(g8
g9
NtRp197
(dp198
g12
g13
sg14
S'DejaVu Serif'
p199
sg16
I400
sg17
g13
sg18
g13
sg19
S'/usr/share/fonts/truetype/ttf-dejavu/DejaVuSerif.ttf'
p200
sg21
g22
sbag7
(g8
g9
NtRp201
(dp202
g12
g13
sg14
S'Liberation Sans Narrow'
p203
sg16
I700
sg17
S'condensed'
p204
sg18
g13
sg19
S'/usr/share/fonts/truetype/liberation/LiberationSansNarrow-Bold.ttf'
p205
sg21
g22
sbag7
(g8
g9
NtRp206
(dp207
g12
g122
sg14
S'FreeSans'
p208
sg16
I400
sg17
g13
sg18
g13
sg19
S'/usr/share/fonts/truetype/freefont/FreeSansOblique.ttf'
p209
sg21
g22
sbag7
(g8
g9
NtRp210
(dp211
g12
g13
sg14
S'Liberation Sans'
p212
sg16
I700
sg17
g13
sg18
g13
sg19
S'/usr/share/fonts/truetype/liberation/LiberationSans-Bold.ttf'
p213
sg21
g22
sbag7
(g8
g9
NtRp214
(dp215
g12
g13
sg14
S'Lohit Hindi'
p216
sg16
I400
sg17
g13
sg18
g13
sg19
S'/usr/share/fonts/truetype/ttf-indic-fonts-core/lohit_hi.ttf'
p217
sg21
g22
sbag7
(g8
g9
NtRp218
(dp219
g12
g13
sg14
S'Liberation Mono'
p220
sg16
I400
sg17
g13
sg18
g13
sg19
S'/usr/share/fonts/truetype/liberation/LiberationMono-Regular.ttf'
p221
sg21
g22
sbag7
(g8
g9
NtRp222
(dp223
g12
g13
sg14
S'Ubuntu'
p224
sg16
I400
sg17
g13
sg18
g13
sg19
S'/usr/share/fonts/truetype/ubuntu-font-family/Ubuntu-R.ttf'
p225
sg21
g22
sbag7
(g8
g9
NtRp226
(dp227
g12
g13
sg14
S'eufm10'
p228
sg16
I400
sg17
g13
sg18
g13
sg19
S'/usr/share/fonts/truetype/ttf-lyx/eufm10.ttf'
p229
sg21
g22
sbag7
(g8
g9
NtRp230
(dp231
g12
g13
sg14
S'Garuda'
p232
sg16
I400
sg17
g13
sg18
g13
sg19
S'/usr/share/fonts/truetype/tlwg/Garuda.ttf'
p233
sg21
g22
sbag7
(g8
g9
NtRp234
(dp235
g12
g122
sg14
S'TlwgMono'
p236
sg16
I400
sg17
g13
sg18
g13
sg19
S'/usr/share/fonts/truetype/tlwg/TlwgMono-Oblique.ttf'
p237
sg21
g22
sbag7
(g8
g9
NtRp238
(dp239
g12
g13
sg14
S'Tlwg Typist'
p240
sg16
I400
sg17
g13
sg18
g13
sg19
S'/usr/share/fonts/truetype/tlwg/TlwgTypist.ttf'
p241
sg21
g22
sbag7
(g8
g9
NtRp242
(dp243
g12
g13
sg14
S'NanumGothic'
p244
sg16
I400
sg17
g13
sg18
g13
sg19
S'/usr/share/fonts/truetype/nanum/NanumGothic.ttf'
p245
sg21
g22
sbag7
(g8
g9
NtRp246
(dp247
g12
g13
sg14
S'wasy10'
p248
sg16
I400
sg17
g13
sg18
g13
sg19
S'/usr/share/fonts/truetype/ttf-lyx/wasy10.ttf'
p249
sg21
g22
sbag7
(g8
g9
NtRp250
(dp251
g12
g13
sg14
S'mry_KacstQurn'
p252
sg16
I400
sg17
g13
sg18
g13
sg19
S'/usr/share/fonts/truetype/kacst/mry_KacstQurn.ttf'
p253
sg21
g22
sbag7
(g8
g9
NtRp254
(dp255
g12
g13
sg14
S'msbm10'
p256
sg16
I400
sg17
g13
sg18
g13
sg19
S'/usr/share/fonts/truetype/ttf-lyx/msbm10.ttf'
p257
sg21
g22
sbag7
(g8
g9
NtRp258
(dp259
g12
g13
sg14
S'TlwgMono'
p260
sg16
I700
sg17
g13
sg18
g13
sg19
S'/usr/share/fonts/truetype/tlwg/TlwgMono-Bold.ttf'
p261
sg21
g22
sbag7
(g8
g9
NtRp262
(dp263
g12
g29
sg14
S'Liberation Mono'
p264
sg16
I400
sg17
g13
sg18
g13
sg19
S'/usr/share/fonts/truetype/liberation/LiberationMono-Italic.ttf'
p265
sg21
g22
sbag7
(g8
g9
NtRp266
(dp267
g12
g29
sg14
S'Liberation Serif'
p268
sg16
I700
sg17
g13
sg18
g13
sg19
S'/usr/share/fonts/truetype/liberation/LiberationSerif-BoldItalic.ttf'
p269
sg21
g22
sbag7
(g8
g9
NtRp270
(dp271
g12
g13
sg14
S'Liberation Serif'
p272
sg16
I700
sg17
g13
sg18
g13
sg19
S'/usr/share/fonts/truetype/liberation/LiberationSerif-Bold.ttf'
p273
sg21
g22
sbag7
(g8
g9
NtRp274
(dp275
g12
g13
sg14
S'KacstOne'
p276
sg16
I700
sg17
g13
sg18
g13
sg19
S'/usr/share/fonts/truetype/kacst-one/KacstOne-Bold.ttf'
p277
sg21
g22
sbag7
(g8
g9
NtRp278
(dp279
g12
g13
sg14
S'NanumMyeongjo'
p280
sg16
I700
sg17
g13
sg18
g13
sg19
S'/usr/share/fonts/truetype/nanum/NanumMyeongjoBold.ttf'
p281
sg21
g22
sbag7
(g8
g9
NtRp282
(dp283
g12
g13
sg14
S'Waree'
p284
sg16
I700
sg17
g13
sg18
g13
sg19
S'/usr/share/fonts/truetype/tlwg/Waree-Bold.ttf'
p285
sg21
g22
sbag7
(g8
g9
NtRp286
(dp287
g12
g13
sg14
S'UnGraphic'
p288
sg16
I400
sg17
g13
sg18
g13
sg19
S'/usr/share/fonts/truetype/unfonts-core/UnGraphic.ttf'
p289
sg21
g22
sbag7
(g8
g9
NtRp290
(dp291
g12
g13
sg14
S'Phetsarath OT'
p292
sg16
I400
sg17
g13
sg18
g13
sg19
S'/usr/share/fonts/truetype/lao/Phetsarath_OT.ttf'
p293
sg21
g22
sbag7
(g8
g9
NtRp294
(dp295
g12
g13
sg14
S'UnBatang'
p296
sg16
I400
sg17
g13
sg18
g13
sg19
S'/usr/share/fonts/truetype/unfonts-core/UnBatang.ttf'
p297
sg21
g22
sbag7
(g8
g9
NtRp298
(dp299
g12
g13
sg14
S'ori1Uni'
p300
sg16
I500
sg17
g13
sg18
g13
sg19
S'/usr/share/fonts/truetype/ttf-indic-fonts-core/utkal.ttf'
p301
sg21
g22
sbag7
(g8
g9
NtRp302
(dp303
g12
g13
sg14
S'KacstQurn'
p304
sg16
I400
sg17
g13
sg18
g13
sg19
S'/usr/share/fonts/truetype/kacst/KacstQurn.ttf'
p305
sg21
g22
sbag7
(g8
g9
NtRp306
(dp307
g12
g13
sg14
S'Mukti Narrow'
p308
sg16
I400
sg17
g13
sg18
g13
sg19
S'/usr/share/fonts/truetype/ttf-indic-fonts-core/MuktiNarrow.ttf'
p309
sg21
g22
sbag7
(g8
g9
NtRp310
(dp311
g12
g13
sg14
S'TakaoPGothic'
p312
sg16
I400
sg17
g13
sg18
g13
sg19
S'/usr/share/fonts/truetype/takao-gothic/TakaoPGothic.ttf'
p313
sg21
g22
sbag7
(g8
g9
NtRp314
(dp315
g12
g13
sg14
S'KacstScreen'
p316
sg16
I400
sg17
g13
sg18
g13
sg19
S'/usr/share/fonts/truetype/kacst/KacstScreen.ttf'
p317
sg21
g22
sbag7
(g8
g9
NtRp318
(dp319
g12
g13
sg14
S'Kedage'
p320
sg16
I700
sg17
g13
sg18
g13
sg19
S'/usr/share/fonts/truetype/ttf-indic-fonts-core/Kedage-b.ttf'
p321
sg21
g22
sbag7
(g8
g9
NtRp322
(dp323
g12
g13
sg14
S'DejaVu Serif'
p324
sg16
I700
sg17
g13
sg18
g13
sg19
S'/usr/share/fonts/truetype/ttf-dejavu/DejaVuSerif-Bold.ttf'
p325
sg21
g22
sbag7
(g8
g9
NtRp326
(dp327
g12
g13
sg14
S'Ubuntu Mono'
p328
sg16
I400
sg17
g13
sg18
g13
sg19
S'/usr/share/fonts/truetype/ubuntu-font-family/UbuntuMono-R.ttf'
p329
sg21
g22
sbag7
(g8
g9
NtRp330
(dp331
g12
g13
sg14
S'UnDinaru'
p332
sg16
I400
sg17
g13
sg18
g13
sg19
S'/usr/share/fonts/truetype/unfonts-core/UnDinaru.ttf'
p333
sg21
g22
sbag7
(g8
g9
NtRp334
(dp335
g12
g13
sg14
S'Norasi'
p336
sg16
I700
sg17
g13
sg18
g13
sg19
S'/usr/share/fonts/truetype/tlwg/Norasi-Bold.ttf'
p337
sg21
g22
sbag7
(g8
g9
NtRp338
(dp339
g12
g29
sg14
S'Norasi'
p340
sg16
I700
sg17
g13
sg18
g13
sg19
S'/usr/share/fonts/truetype/tlwg/Norasi-BoldItalic.ttf'
p341
sg21
g22
sbag7
(g8
g9
NtRp342
(dp343
g12
g13
sg14
S'Umpush'
p344
sg16
I700
sg17
g13
sg18
g13
sg19
S'/usr/share/fonts/truetype/tlwg/Umpush-Bold.ttf'
p345
sg21
g22
sbag7
(g8
g9
NtRp346
(dp347
g12
g122
sg14
S'Kinnari'
p348
sg16
I700
sg17
g13
sg18
g13
sg19
S'/usr/share/fonts/truetype/tlwg/Kinnari-BoldOblique.ttf'
p349
sg21
g22
sbag7
(g8
g9
NtRp350
(dp351
g12
g29
sg14
S'Liberation Sans'
p352
sg16
I700
sg17
g13
sg18
g13
sg19
S'/usr/share/fonts/truetype/liberation/LiberationSans-BoldItalic.ttf'
p353
sg21
g22
sbag7
(g8
g9
NtRp354
(dp355
g12
g13
sg14
S'UnGraphic'
p356
sg16
I700
sg17
g13
sg18
g13
sg19
S'/usr/share/fonts/truetype/unfonts-core/UnGraphicBold.ttf'
p357
sg21
g22
sbag7
(g8
g9
NtRp358
(dp359
g12
g13
sg14
S'Mallige'
p360
sg16
I400
sg17
g13
sg18
g13
sg19
S'/usr/share/fonts/truetype/ttf-indic-fonts-core/Malige-n.ttf'
p361
sg21
g22
sbag7
(g8
g9
NtRp362
(dp363
g12
g13
sg14
S'KacstNaskh'
p364
sg16
I400
sg17
g13
sg18
g13
sg19
S'/usr/share/fonts/truetype/kacst/KacstNaskh.ttf'
p365
sg21
g22
sbag7
(g8
g9
NtRp366
(dp367
g12
g13
sg14
S'Rekha'
p368
sg16
I400
sg17
g13
sg18
g13
sg19
S'/usr/share/fonts/truetype/ttf-indic-fonts-core/Rekha.ttf'
p369
sg21
g22
sbag7
(g8
g9
NtRp370
(dp371
g12
g13
sg14
S'Vemana2000'
p372
sg16
I400
sg17
g13
sg18
g13
sg19
S'/usr/share/fonts/truetype/ttf-indic-fonts-core/Vemana.ttf'
p373
sg21
g22
sbag7
(g8
g9
NtRp374
(dp375
g12
g122
sg14
S'Norasi'
p376
sg16
I700
sg17
g13
sg18
g13
sg19
S'/usr/share/fonts/truetype/tlwg/Norasi-BoldOblique.ttf'
p377
sg21
g22
sbag7
(g8
g9
NtRp378
(dp379
g12
g29
sg14
S'Kinnari'
p380
sg16
I700
sg17
g13
sg18
g13
sg19
S'/usr/share/fonts/truetype/tlwg/Kinnari-BoldItalic.ttf'
p381
sg21
g22
sbag7
(g8
g9
NtRp382
(dp383
g12
g13
sg14
S'Sawasdee'
p384
sg16
I400
sg17
g13
sg18
g13
sg19
S'/usr/share/fonts/truetype/tlwg/Sawasdee.ttf'
p385
sg21
g22
sbag7
(g8
g9
NtRp386
(dp387
g12
g13
sg14
S'KacstOne'
p388
sg16
I400
sg17
g13
sg18
g13
sg19
S'/usr/share/fonts/truetype/kacst-one/KacstOne.ttf'
p389
sg21
g22
sbag7
(g8
g9
NtRp390
(dp391
g12
g13
sg14
S'UnDinaru'
p392
sg16
I700
sg17
g13
sg18
g13
sg19
S'/usr/share/fonts/truetype/unfonts-core/UnDinaruBold.ttf'
p393
sg21
g22
sbag7
(g8
g9
NtRp394
(dp395
g12
g13
sg14
S'FreeSans'
p396
sg16
I700
sg17
g13
sg18
g13
sg19
S'/usr/share/fonts/truetype/freefont/FreeSansBold.ttf'
p397
sg21
g22
sbag7
(g8
g9
NtRp398
(dp399
g12
g13
sg14
S'Lohit Bengali'
p400
sg16
I400
sg17
g13
sg18
g13
sg19
S'/usr/share/fonts/truetype/ttf-indic-fonts-core/lohit_bn.ttf'
p401
sg21
g22
sbag7
(g8
g9
NtRp402
(dp403
g12
g29
sg14
S'Ubuntu Mono'
p404
sg16
I400
sg17
g13
sg18
g13
sg19
S'/usr/share/fonts/truetype/ubuntu-font-family/UbuntuMono-RI.ttf'
p405
sg21
g22
sbag7
(g8
g9
NtRp406
(dp407
g12
g13
sg14
S'Liberation Serif'
p408
sg16
I400
sg17
g13
sg18
g13
sg19
S'/usr/share/fonts/truetype/liberation/LiberationSerif-Regular.ttf'
p409
sg21
g22
sbag7
(g8
g9
NtRp410
(dp411
g12
g13
sg14
S'Purisa'
p412
sg16
I700
sg17
g13
sg18
g13
sg19
S'/usr/share/fonts/truetype/tlwg/Purisa-Bold.ttf'
p413
sg21
g22
sbag7
(g8
g9
NtRp414
(dp415
g12
g13
sg14
S'FreeMono'
p416
sg16
I700
sg17
g13
sg18
g13
sg19
S'/usr/share/fonts/truetype/freefont/FreeMonoBold.ttf'
p417
sg21
g22
sbag7
(g8
g9
NtRp418
(dp419
g12
g13
sg14
S'DejaVu Sans'
p420
sg16
I700
sg17
g13
sg18
g13
sg19
S'/usr/share/fonts/truetype/ttf-dejavu/DejaVuSans-Bold.ttf'
p421
sg21
g22
sbag7
(g8
g9
NtRp422
(dp423
g12
g13
sg14
S'Tlwg Typist'
p424
sg16
I700
sg17
g13
sg18
g13
sg19
S'/usr/share/fonts/truetype/tlwg/TlwgTypist-Bold.ttf'
p425
sg21
g22
sbag7
(g8
g9
NtRp426
(dp427
g12
g13
sg14
S'Ubuntu'
p428
sg16
I200
sg17
g13
sg18
g13
sg19
S'/usr/share/fonts/truetype/ubuntu-font-family/Ubuntu-L.ttf'
p429
sg21
g22
sbag7
(g8
g9
NtRp430
(dp431
g12
g13
sg14
S'KacstBook'
p432
sg16
I400
sg17
g13
sg18
g13
sg19
S'/usr/share/fonts/truetype/kacst/KacstBook.ttf'
p433
sg21
g22
sbag7
(g8
g9
NtRp434
(dp435
g12
g13
sg14
S'KacstFarsi'
p436
sg16
I400
sg17
g13
sg18
g13
sg19
S'/usr/share/fonts/truetype/kacst/KacstFarsi.ttf'
p437
sg21
g22
sbag7
(g8
g9
NtRp438
(dp439
g12
g13
sg14
S'KacstPoster'
p440
sg16
I400
sg17
g13
sg18
g13
sg19
S'/usr/share/fonts/truetype/kacst/KacstPoster.ttf'
p441
sg21
g22
sbag7
(g8
g9
NtRp442
(dp443
g12
g13
sg14
S'Purisa'
p444
sg16
I400
sg17
g13
sg18
g13
sg19
S'/usr/share/fonts/truetype/tlwg/Purisa.ttf'
p445
sg21
g22
sbag7
(g8
g9
NtRp446
(dp447
g12
g29
sg14
S'Ubuntu'
p448
sg16
I200
sg17
g13
sg18
g13
sg19
S'/usr/share/fonts/truetype/ubuntu-font-family/Ubuntu-LI.ttf'
p449
sg21
g22
sbag7
(g8
g9
NtRp450
(dp451
g12
g13
sg14
S'Lohit Punjabi'
p452
sg16
I400
sg17
g13
sg18
g13
sg19
S'/usr/share/fonts/truetype/ttf-punjabi-fonts/lohit_pa.ttf'
p453
sg21
g22
sbag7
(g8
g9
NtRp454
(dp455
g12
g13
sg14
S'Pothana2000'
p456
sg16
I400
sg17
g13
sg18
g13
sg19
S'/usr/share/fonts/truetype/ttf-indic-fonts-core/Pothana2000.ttf'
p457
sg21
g22
sbag7
(g8
g9
NtRp458
(dp459
g12
g122
sg14
S'Umpush'
p460
sg16
I400
sg17
g13
sg18
g13
sg19
S'/usr/share/fonts/truetype/tlwg/Umpush-Oblique.ttf'
p461
sg21
g22
sbag7
(g8
g9
NtRp462
(dp463
g12
g13
sg14
S'NanumGothic'
p464
sg16
I700
sg17
g13
sg18
g13
sg19
S'/usr/share/fonts/truetype/nanum/NanumGothicBold.ttf'
p465
sg21
g22
sbag7
(g8
g9
NtRp466
(dp467
g12
g29
sg14
S'Liberation Mono'
p468
sg16
I700
sg17
g13
sg18
g13
sg19
S'/usr/share/fonts/truetype/liberation/LiberationMono-BoldItalic.ttf'
p469
sg21
g22
sbag7
(g8
g9
NtRp470
(dp471
g12
g122
sg14
S'Purisa'
p472
sg16
I700
sg17
g13
sg18
g13
sg19
S'/usr/share/fonts/truetype/tlwg/Purisa-BoldOblique.ttf'
p473
sg21
g22
sbag7
(g8
g9
NtRp474
(dp475
g12
g122
sg14
S'Loma'
p476
sg16
I700
sg17
g13
sg18
g13
sg19
S'/usr/share/fonts/truetype/tlwg/Loma-BoldOblique.ttf'
p477
sg21
g22
sbag7
(g8
g9
NtRp478
(dp479
g12
g13
sg14
S'UnGungseo'
p480
sg16
I400
sg17
g13
sg18
g13
sg19
S'/usr/share/fonts/truetype/unfonts-core/UnGungseo.ttf'
p481
sg21
g22
sbag7
(g8
g9
NtRp482
(dp483
g12
g13
sg14
S'TlwgTypewriter'
p484
sg16
I400
sg17
g13
sg18
g13
sg19
S'/usr/share/fonts/truetype/tlwg/TlwgTypewriter.ttf'
p485
sg21
g22
sbag7
(g8
g9
NtRp486
(dp487
g12
g13
sg14
S'DejaVu Sans'
p488
sg16
I400
sg17
g13
sg18
g13
sg19
S'/usr/share/fonts/truetype/ttf-dejavu/DejaVuSans.ttf'
p489
sg21
g22
sbag7
(g8
g9
NtRp490
(dp491
g12
g13
sg14
S'Ubuntu Mono'
p492
sg16
I700
sg17
g13
sg18
g13
sg19
S'/usr/share/fonts/truetype/ubuntu-font-family/UbuntuMono-B.ttf'
p493
sg21
g22
sbag7
(g8
g9
NtRp494
(dp495
g12
g13
sg14
S'esint10'
p496
sg16
I400
sg17
g13
sg18
g13
sg19
S'/usr/share/fonts/truetype/ttf-lyx/esint10.ttf'
p497
sg21
g22
sbag7
(g8
g9
NtRp498
(dp499
g12
g13
sg14
S'OpenSymbol'
p500
sg16
I400
sg17
g13
sg18
g13
sg19
S'/usr/share/fonts/truetype/openoffice/opens___.ttf'
p501
sg21
g22
sbag7
(g8
g9
NtRp502
(dp503
g12
g13
sg14
S'gargi'
p504
sg16
I400
sg17
g13
sg18
g13
sg19
S'/usr/share/fonts/truetype/ttf-indic-fonts-core/gargi.ttf'
p505
sg21
g22
sbag7
(g8
g9
NtRp506
(dp507
g12
g29
sg14
S'Norasi'
p508
sg16
I400
sg17
g13
sg18
g13
sg19
S'/usr/share/fonts/truetype/tlwg/Norasi-Italic.ttf'
p509
sg21
g22
sbag7
(g8
g9
NtRp510
(dp511
g12
g29
sg14
S'Ubuntu'
p512
sg16
I700
sg17
g13
sg18
g13
sg19
S'/usr/share/fonts/truetype/ubuntu-font-family/Ubuntu-BI.ttf'
p513
sg21
g22
sbag7
(g8
g9
NtRp514
(dp515
g12
g13
sg14
S'Khmer OS System'
p516
sg16
I400
sg17
g13
sg18
g13
sg19
S'/usr/share/fonts/truetype/ttf-khmeros-core/KhmerOSsys.ttf'
p517
sg21
g22
sbag7
(g8
g9
NtRp518
(dp519
g12
g122
sg14
S'Tlwg Typist'
p520
sg16
I400
sg17
g13
sg18
g13
sg19
S'/usr/share/fonts/truetype/tlwg/TlwgTypist-Oblique.ttf'
p521
sg21
g22
sbag7
(g8
g9
NtRp522
(dp523
g12
g13
sg14
S'Norasi'
p524
sg16
I400
sg17
g13
sg18
g13
sg19
S'/usr/share/fonts/truetype/tlwg/Norasi.ttf'
p525
sg21
g22
sbag7
(g8
g9
NtRp526
(dp527
g12
g13
sg14
S'Mukti Narrow'
p528
sg16
I700
sg17
g13
sg18
g13
sg19
S'/usr/share/fonts/truetype/ttf-indic-fonts-core/MuktiNarrowBold.ttf'
p529
sg21
g22
sbag7
(g8
g9
NtRp530
(dp531
g12
g29
sg14
S'Liberation Sans'
p532
sg16
I400
sg17
g13
sg18
g13
sg19
S'/usr/share/fonts/truetype/liberation/LiberationSans-Italic.ttf'
p533
sg21
g22
sbag7
(g8
g9
NtRp534
(dp535
g12
g122
sg14
S'Umpush'
p536
sg16
I700
sg17
g13
sg18
g13
sg19
S'/usr/share/fonts/truetype/tlwg/Umpush-BoldOblique.ttf'
p537
sg21
g22
sbag7
(g8
g9
NtRp538
(dp539
g12
g13
sg14
S'UnPilgi'
p540
sg16
I400
sg17
g13
sg18
g13
sg19
S'/usr/share/fonts/truetype/unfonts-core/UnPilgi.ttf'
p541
sg21
g22
sbag7
(g8
g9
NtRp542
(dp543
g12
g122
sg14
S'FreeSans'
p544
sg16
I700
sg17
g13
sg18
g13
sg19
S'/usr/share/fonts/truetype/freefont/FreeSansBoldOblique.ttf'
p545
sg21
g22
sbag7
(g8
g9
NtRp546
(dp547
g12
g13
sg14
S'Tlwg Typo'
p548
sg16
I700
sg17
g13
sg18
g13
sg19
S'/usr/share/fonts/truetype/tlwg/TlwgTypo-Bold.ttf'
p549
sg21
g22
sbag7
(g8
g9
NtRp550
(dp551
g12
g29
sg14
S'Ubuntu'
p552
sg16
I400
sg17
g13
sg18
g13
sg19
S'/usr/share/fonts/truetype/ubuntu-font-family/Ubuntu-RI.ttf'
p553
sg21
g22
sbag7
(g8
g9
NtRp554
(dp555
g12
g122
sg14
S'Waree'
p556
sg16
I400
sg17
g13
sg18
g13
sg19
S'/usr/share/fonts/truetype/tlwg/Waree-Oblique.ttf'
p557
sg21
g22
sbag7
(g8
g9
NtRp558
(dp559
g12
g29
sg14
S'Liberation Serif'
p560
sg16
I400
sg17
g13
sg18
g13
sg19
S'/usr/share/fonts/truetype/liberation/LiberationSerif-Italic.ttf'
p561
sg21
g22
sbag7
(g8
g9
NtRp562
(dp563
g12
g13
sg14
S'TlwgTypewriter'
p564
sg16
I700
sg17
g13
sg18
g13
sg19
S'/usr/share/fonts/truetype/tlwg/TlwgTypewriter-Bold.ttf'
p565
sg21
g22
sbag7
(g8
g9
NtRp566
(dp567
g12
g122
sg14
S'Waree'
p568
sg16
I700
sg17
g13
sg18
g13
sg19
S'/usr/share/fonts/truetype/tlwg/Waree-BoldOblique.ttf'
p569
sg21
g22
sbag7
(g8
g9
NtRp570
(dp571
g12
g13
sg14
S'FreeSans'
p572
sg16
I400
sg17
g13
sg18
g13
sg19
S'/usr/share/fonts/truetype/freefont/FreeSans.ttf'
p573
sg21
g22
sbag7
(g8
g9
NtRp574
(dp575
g12
g122
sg14
S'Kinnari'
p576
sg16
I400
sg17
g13
sg18
g13
sg19
S'/usr/share/fonts/truetype/tlwg/Kinnari-Oblique.ttf'
p577
sg21
g22
sbag7
(g8
g9
NtRp578
(dp579
g12
g13
sg14
S'UnDinaru'
p580
sg16
I200
sg17
g13
sg18
g13
sg19
S'/usr/share/fonts/truetype/unfonts-core/UnDinaruLight.ttf'
p581
sg21
g22
sbag7
(g8
g9
NtRp582
(dp583
g12
g13
sg14
S'DejaVu Sans Mono'
p584
sg16
I700
sg17
g13
sg18
g13
sg19
S'/usr/share/fonts/truetype/ttf-dejavu/DejaVuSansMono-Bold.ttf'
p585
sg21
g22
sbag7
(g8
g9
NtRp586
(dp587
g12
g29
sg14
S'FreeSerif'
p588
sg16
I700
sg17
g13
sg18
g13
sg19
S'/usr/share/fonts/truetype/freefont/FreeSerifBoldItalic.ttf'
p589
sg21
g22
sbag7
(g8
g9
NtRp590
(dp591
g12
g13
sg14
S'KacstArt'
p592
sg16
I400
sg17
g13
sg18
g13
sg19
S'/usr/share/fonts/truetype/kacst/KacstArt.ttf'
p593
sg21
g22
sbag7
(g8
g9
NtRp594
(dp595
g12
g13
sg14
S'Waree'
p596
sg16
I400
sg17
g13
sg18
g13
sg19
S'/usr/share/fonts/truetype/tlwg/Waree.ttf'
p597
sg21
g22
sbag7
(g8
g9
NtRp598
(dp599
g12
g29
sg14
S'Liberation Sans Narrow'
p600
sg16
I700
sg17
g204
sg18
g13
sg19
S'/usr/share/fonts/truetype/liberation/LiberationSansNarrow-BoldItalic.ttf'
p601
sg21
g22
sbag7
(g8
g9
NtRp602
(dp603
g12
g13
sg14
S'Umpush'
p604
sg16
I200
sg17
g13
sg18
g13
sg19
S'/usr/share/fonts/truetype/tlwg/Umpush-Light.ttf'
p605
sg21
g22
sbag7
(g8
g9
NtRp606
(dp607
g12
g13
sg14
S'UnBatang'
p608
sg16
I700
sg17
g13
sg18
g13
sg19
S'/usr/share/fonts/truetype/unfonts-core/UnBatangBold.ttf'
p609
sg21
g22
sbag7
(g8
g9
NtRp610
(dp611
g12
g13
sg14
S'Lohit Tamil'
p612
sg16
I400
sg17
g13
sg18
g13
sg19
S'/usr/share/fonts/truetype/ttf-indic-fonts-core/lohit_ta.ttf'
p613
sg21
g22
sbag7
(g8
g9
NtRp614
(dp615
g12
g13
sg14
S'Liberation Sans'
p616
sg16
I400
sg17
g13
sg18
g13
sg19
S'/usr/share/fonts/truetype/liberation/LiberationSans-Regular.ttf'
p617
sg21
g22
sbag7
(g8
g9
NtRp618
(dp619
g12
g13
sg14
S'Ubuntu Condensed'
p620
sg16
I400
sg17
g204
sg18
g13
sg19
S'/usr/share/fonts/truetype/ubuntu-font-family/Ubuntu-C.ttf'
p621
sg21
g22
sbag7
(g8
g9
NtRp622
(dp623
g12
g13
sg14
S'Kinnari'
p624
sg16
I400
sg17
g13
sg18
g13
sg19
S'/usr/share/fonts/truetype/tlwg/Kinnari.ttf'
p625
sg21
g22
sbag7
(g8
g9
NtRp626
(dp627
g12
g29
sg14
S'Ubuntu Mono'
p628
sg16
I700
sg17
g13
sg18
g13
sg19
S'/usr/share/fonts/truetype/ubuntu-font-family/UbuntuMono-BI.ttf'
p629
sg21
g22
sbag7
(g8
g9
NtRp630
(dp631
g12
g122
sg14
S'TlwgMono'
p632
sg16
I700
sg17
g13
sg18
g13
sg19
S'/usr/share/fonts/truetype/tlwg/TlwgMono-BoldOblique.ttf'
p633
sg21
g22
sbag7
(g8
g9
NtRp634
(dp635
g12
g13
sg14
S'Kedage'
p636
sg16
I400
sg17
g13
sg18
g13
sg19
S'/usr/share/fonts/truetype/ttf-indic-fonts-core/Kedage-n.ttf'
p637
sg21
g22
sbag7
(g8
g9
NtRp638
(dp639
g12
g13
sg14
S'Kinnari'
p640
sg16
I700
sg17
g13
sg18
g13
sg19
S'/usr/share/fonts/truetype/tlwg/Kinnari-Bold.ttf'
p641
sg21
g22
sbag7
(g8
g9
NtRp642
(dp643
g12
g122
sg14
S'FreeMono'
p644
sg16
I400
sg17
g13
sg18
g13
sg19
S'/usr/share/fonts/truetype/freefont/FreeMonoOblique.ttf'
p645
sg21
g22
sbag7
(g8
g9
NtRp646
(dp647
g12
g13
sg14
S'TlwgMono'
p648
sg16
I400
sg17
g13
sg18
g13
sg19
S'/usr/share/fonts/truetype/tlwg/TlwgMono.ttf'
p649
sg21
g22
sbag7
(g8
g9
NtRp650
(dp651
g12
g122
sg14
S'TlwgTypewriter'
p652
sg16
I700
sg17
g13
sg18
g13
sg19
S'/usr/share/fonts/truetype/tlwg/TlwgTypewriter-BoldOblique.ttf'
p653
sg21
g22
sbag7
(g8
g9
NtRp654
(dp655
g12
g13
sg14
S'FreeSerif'
p656
sg16
I400
sg17
g13
sg18
g13
sg19
S'/usr/share/fonts/truetype/freefont/FreeSerif.ttf'
p657
sg21
g22
sbag7
(g8
g9
NtRp658
(dp659
g12
g13
sg14
S'Liberation Sans Narrow'
p660
sg16
I400
sg17
g204
sg18
g13
sg19
S'/usr/share/fonts/truetype/liberation/LiberationSansNarrow-Regular.ttf'
p661
sg21
g22
sbag7
(g8
g9
NtRp662
(dp663
g12
g122
sg14
S'Purisa'
p664
sg16
I400
sg17
g13
sg18
g13
sg19
S'/usr/share/fonts/truetype/tlwg/Purisa-Oblique.ttf'
p665
sg21
g22
sbag7
(g8
g9
NtRp666
(dp667
g12
g29
sg14
S'Kinnari'
p668
sg16
I400
sg17
g13
sg18
g13
sg19
S'/usr/share/fonts/truetype/tlwg/Kinnari-Italic.ttf'
p669
sg21
g22
sbag7
(g8
g9
NtRp670
(dp671
g12
g122
sg14
S'Sawasdee'
p672
sg16
I700
sg17
g13
sg18
g13
sg19
S'/usr/share/fonts/truetype/tlwg/Sawasdee-BoldOblique.ttf'
p673
sg21
g22
sbag7
(g8
g9
NtRp674
(dp675
g12
g13
sg14
S'Sawasdee'
p676
sg16
I700
sg17
g13
sg18
g13
sg19
S'/usr/share/fonts/truetype/tlwg/Sawasdee-Bold.ttf'
p677
sg21
g22
sbag7
(g8
g9
NtRp678
(dp679
g12
g13
sg14
S'KacstDigital'
p680
sg16
I400
sg17
g13
sg18
g13
sg19
S'/usr/share/fonts/truetype/kacst/KacstDigital.ttf'
p681
sg21
g22
sbag7
(g8
g9
NtRp682
(dp683
g12
g13
sg14
S'Saab'
p684
sg16
I400
sg17
g13
sg18
g13
sg19
S'/usr/share/fonts/truetype/ttf-punjabi-fonts/Saab.ttf'
p685
sg21
g22
sbag7
(g8
g9
NtRp686
(dp687
g12
g13
sg14
S'KacstOffice'
p688
sg16
I400
sg17
g13
sg18
g13
sg19
S'/usr/share/fonts/truetype/kacst/KacstOffice.ttf'
p689
sg21
g22
sbag7
(g8
g9
NtRp690
(dp691
g12
g13
sg14
S'Lohit Gujarati'
p692
sg16
I400
sg17
g13
sg18
g13
sg19
S'/usr/share/fonts/truetype/ttf-indic-fonts-core/lohit_gu.ttf'
p693
sg21
g22
sbag7
(g8
g9
NtRp694
(dp695
g12
g122
sg14
S'Sawasdee'
p696
sg16
I400
sg17
g13
sg18
g13
sg19
S'/usr/share/fonts/truetype/tlwg/Sawasdee-Oblique.ttf'
p697
sg21
g22
sbag7
(g8
g9
NtRp698
(dp699
g12
g13
sg14
S'NanumMyeongjo'
p700
sg16
I400
sg17
g13
sg18
g13
sg19
S'/usr/share/fonts/truetype/nanum/NanumMyeongjo.ttf'
p701
sg21
g22
sbag7
(g8
g9
NtRp702
(dp703
g12
g13
sg14
S'Khmer OS'
p704
sg16
I400
sg17
g13
sg18
g13
sg19
S'/usr/share/fonts/truetype/ttf-khmeros-core/KhmerOS.ttf'
p705
sg21
g22
sbag7
(g8
g9
NtRp706
(dp707
g12
g13
sg14
S'UnDotum'
p708
sg16
I700
sg17
g13
sg18
g13
sg19
S'/usr/share/fonts/truetype/unfonts-core/UnDotumBold.ttf'
p709
sg21
g22
sbag7
(g8
g9
NtRp710
(dp711
g12
g13
sg14
S'Loma'
p712
sg16
I400
sg17
g13
sg18
g13
sg19
S'/usr/share/fonts/truetype/tlwg/Loma.ttf'
p713
sg21
g22
sbag7
(g8
g9
NtRp714
(dp715
g12
g122
sg14
S'Garuda'
p716
sg16
I400
sg17
g13
sg18
g13
sg19
S'/usr/share/fonts/truetype/tlwg/Garuda-Oblique.ttf'
p717
sg21
g22
sbag7
(g8
g9
NtRp718
(dp719
g12
g13
sg14
S'Loma'
p720
sg16
I700
sg17
g13
sg18
g13
sg19
S'/usr/share/fonts/truetype/tlwg/Loma-Bold.ttf'
p721
sg21
g22
sbag7
(g8
g9
NtRp722
(dp723
g12
g13
sg14
S'UnPilgi'
p724
sg16
I700
sg17
g13
sg18
g13
sg19
S'/usr/share/fonts/truetype/unfonts-core/UnPilgiBold.ttf'
p725
sg21
g22
sbag7
(g8
g9
NtRp726
(dp727
g12
g122
sg14
S'Garuda'
p728
sg16
I700
sg17
g13
sg18
g13
sg19
S'/usr/share/fonts/truetype/tlwg/Garuda-BoldOblique.ttf'
p729
sg21
g22
sbag7
(g8
g9
NtRp730
(dp731
g12
g13
sg14
S'KacstLetter'
p732
sg16
I400
sg17
g13
sg18
g13
sg19
S'/usr/share/fonts/truetype/kacst/KacstLetter.ttf'
p733
sg21
g22
sbag7
(g8
g9
NtRp734
(dp735
g12
g13
sg14
S'KacstPen'
p736
sg16
I400
sg17
g13
sg18
g13
sg19
S'/usr/share/fonts/truetype/kacst/KacstPen.ttf'
p737
sg21
g22
sbag7
(g8
g9
NtRp738
(dp739
g12
g122
sg14
S'Tlwg Typo'
p740
sg16
I700
sg17
g13
sg18
g13
sg19
S'/usr/share/fonts/truetype/tlwg/TlwgTypo-BoldOblique.ttf'
p741
sg21
g22
sbag7
(g8
g9
NtRp742
(dp743
g12
g13
sg14
S'FreeMono'
p744
sg16
I400
sg17
g13
sg18
g13
sg19
S'/usr/share/fonts/truetype/freefont/FreeMono.ttf'
p745
sg21
g22
sbag7
(g8
g9
NtRp746
(dp747
g12
g13
sg14
S'Ubuntu'
p748
sg16
I700
sg17
g13
sg18
g13
sg19
S'/usr/share/fonts/truetype/ubuntu-font-family/Ubuntu-B.ttf'
p749
sg21
g22
sbag7
(g8
g9
NtRp750
(dp751
g12
g13
sg14
S'Untitled1'
p752
sg16
I400
sg17
g13
sg18
g13
sg19
S'/usr/share/fonts/truetype/freefont/Untitled1.ttf'
p753
sg21
g22
sbag7
(g8
g9
NtRp754
(dp755
g12
g29
sg14
S'FreeSerif'
p756
sg16
I400
sg17
g13
sg18
g13
sg19
S'/usr/share/fonts/truetype/freefont/FreeSerifItalic.ttf'
p757
sg21
g22
sbag7
(g8
g9
NtRp758
(dp759
g12
g13
sg14
S'KacstTitleL'
p760
sg16
I400
sg17
g13
sg18
g13
sg19
S'/usr/share/fonts/truetype/kacst/KacstTitleL.ttf'
p761
sg21
g22
sbag7
(g8
g9
NtRp762
(dp763
g12
g13
sg14
S'KacstDecorative'
p764
sg16
I400
sg17
g13
sg18
g13
sg19
S'/usr/share/fonts/truetype/kacst/KacstDecorative.ttf'
p765
sg21
g22
sbag7
(g8
g9
NtRp766
(dp767
g12
g122
sg14
S'TlwgTypewriter'
p768
sg16
I400
sg17
g13
sg18
g13
sg19
S'/usr/share/fonts/truetype/tlwg/TlwgTypewriter-Oblique.ttf'
p769
sg21
g22
sbag7
(g8
g9
NtRp770
(dp771
g12
g29
sg14
S'Liberation Sans Narrow'
p772
sg16
I400
sg17
g204
sg18
g13
sg19
S'/usr/share/fonts/truetype/liberation/LiberationSansNarrow-Italic.ttf'
p773
sg21
g22
sbasS'defaultFamily'
p774
(dp775
S'afm'
p776
S'Helvetica'
p777
sS'ttf'
p778
S'Bitstream Vera Sans'
p779
ssS'ttffiles'
p780
(lp781
S'/usr/share/matplotlib/mpl-data/fonts/ttf/cmb10.ttf'
p782
aS'/usr/share/matplotlib/mpl-data/fonts/ttf/cmex10.ttf'
p783
aS'/usr/share/matplotlib/mpl-data/fonts/ttf/STIXNonUniIta.ttf'
p784
aS'/usr/share/matplotlib/mpl-data/fonts/ttf/STIXNonUni.ttf'
p785
aS'/usr/share/matplotlib/mpl-data/fonts/ttf/STIXSizThreeSymReg.ttf'
p786
aS'/usr/share/matplotlib/mpl-data/fonts/ttf/STIXSizTwoSymBol.ttf'
p787
aS'/usr/share/matplotlib/mpl-data/fonts/ttf/cmtt10.ttf'
p788
aS'/usr/share/matplotlib/mpl-data/fonts/ttf/STIXGeneral.ttf'
p789
aS'/usr/share/matplotlib/mpl-data/fonts/ttf/STIXNonUniBolIta.ttf'
p790
aS'/usr/share/matplotlib/mpl-data/fonts/ttf/STIXSizFiveSymReg.ttf'
p791
aS'/usr/share/matplotlib/mpl-data/fonts/ttf/STIXSizOneSymBol.ttf'
p792
aS'/usr/share/matplotlib/mpl-data/fonts/ttf/STIXGeneralBol.ttf'
p793
aS'/usr/share/matplotlib/mpl-data/fonts/ttf/cmr10.ttf'
p794
aS'/usr/share/matplotlib/mpl-data/fonts/ttf/STIXSizTwoSymReg.ttf'
p795
aS'/usr/share/matplotlib/mpl-data/fonts/ttf/STIXSizOneSymReg.ttf'
p796
aS'/usr/share/matplotlib/mpl-data/fonts/ttf/cmsy10.ttf'
p797
aS'/usr/share/matplotlib/mpl-data/fonts/ttf/STIXSizThreeSymBol.ttf'
p798
aS'/usr/share/matplotlib/mpl-data/fonts/ttf/cmss10.ttf'
p799
aS'/usr/share/matplotlib/mpl-data/fonts/ttf/STIXSizFourSymBol.ttf'
p800
aS'/usr/share/matplotlib/mpl-data/fonts/ttf/STIXGeneralItalic.ttf'
p801
aS'/usr/share/matplotlib/mpl-data/fonts/ttf/cmmi10.ttf'
p802
aS'/usr/share/matplotlib/mpl-data/fonts/ttf/STIXNonUniBol.ttf'
p803
aS'/usr/share/matplotlib/mpl-data/fonts/ttf/STIXGeneralBolIta.ttf'
p804
aS'/usr/share/matplotlib/mpl-data/fonts/ttf/STIXSizFourSymReg.ttf'
p805
aS'/usr/share/fonts/truetype/kacst/KacstTitle.ttf'
p806
aS'/usr/share/fonts/truetype/tlwg/TlwgTypo-Oblique.ttf'
p807
aS'/usr/share/fonts/truetype/ttf-indic-fonts-core/Malige-b.ttf'
p808
aS'/usr/share/fonts/truetype/tlwg/Umpush.ttf'
p809
aS'/usr/share/fonts/truetype/tlwg/Garuda-Bold.ttf'
p810
aS'/usr/share/fonts/truetype/tlwg/TlwgTypist-BoldOblique.ttf'
p811
aS'/usr/share/fonts/truetype/ttf-lyx/rsfs10.ttf'
p812
aS'/usr/share/fonts/truetype/tlwg/Loma-Oblique.ttf'
p813
aS'/usr/share/fonts/truetype/ttf-lyx/msam10.ttf'
p814
aS'/usr/share/fonts/truetype/tlwg/Norasi-Oblique.ttf'
p815
aS'/usr/share/fonts/truetype/ttf-dejavu/DejaVuSansMono.ttf'
p816
aS'/usr/share/fonts/truetype/ttf-lyx/cmmi10.ttf'
p817
aS'/usr/share/fonts/truetype/ttf-indic-fonts-core/Meera_04.ttf'
p818
aS'/usr/share/fonts/truetype/fonts-japanese-gothic.ttf'
p819
aS'/usr/share/fonts/truetype/liberation/LiberationMono-Bold.ttf'
p820
aS'/usr/share/fonts/truetype/unfonts-core/UnDotum.ttf'
p821
aS'/usr/share/fonts/truetype/tlwg/Umpush-LightOblique.ttf'
p822
aS'/usr/share/fonts/truetype/freefont/FreeSerifBold.ttf'
p823
aS'/usr/share/fonts/truetype/freefont/FreeMonoBoldOblique.ttf'
p824
aS'/usr/share/fonts/truetype/tlwg/TlwgTypo.ttf'
p825
aS'/usr/share/fonts/truetype/ttf-indic-fonts-core/Rachana_04.ttf'
p826
aS'/usr/share/fonts/truetype/ttf-dejavu/DejaVuSerif.ttf'
p827
aS'/usr/share/fonts/truetype/liberation/LiberationSansNarrow-Bold.ttf'
p828
aS'/usr/share/fonts/truetype/freefont/FreeSansOblique.ttf'
p829
aS'/usr/share/fonts/truetype/liberation/LiberationSans-Bold.ttf'
p830
aS'/usr/share/fonts/truetype/ttf-indic-fonts-core/lohit_hi.ttf'
p831
aS'/usr/share/fonts/truetype/liberation/LiberationMono-Regular.ttf'
p832
aS'/usr/share/fonts/truetype/ubuntu-font-family/Ubuntu-R.ttf'
p833
aS'/usr/share/fonts/truetype/ttf-lyx/eufm10.ttf'
p834
aS'/usr/share/fonts/truetype/tlwg/Garuda.ttf'
p835
aS'/usr/share/fonts/truetype/tlwg/TlwgMono-Oblique.ttf'
p836
aS'/usr/share/fonts/truetype/tlwg/TlwgTypist.ttf'
p837
aS'/usr/share/fonts/truetype/nanum/NanumGothic.ttf'
p838
aS'/usr/share/fonts/truetype/ttf-lyx/wasy10.ttf'
p839
aS'/usr/share/fonts/truetype/kacst/mry_KacstQurn.ttf'
p840
aS'/usr/share/fonts/truetype/ttf-lyx/msbm10.ttf'
p841
aS'/usr/share/fonts/truetype/tlwg/TlwgMono-Bold.ttf'
p842
aS'/usr/share/fonts/truetype/liberation/LiberationMono-Italic.ttf'
p843
aS'/usr/share/fonts/truetype/liberation/LiberationSerif-BoldItalic.ttf'
p844
aS'/usr/share/fonts/truetype/ttf-lyx/cmr10.ttf'
p845
aS'/usr/share/fonts/truetype/liberation/LiberationSerif-Bold.ttf'
p846
aS'/usr/share/fonts/truetype/kacst-one/KacstOne-Bold.ttf'
p847
aS'/usr/share/fonts/truetype/nanum/NanumMyeongjoBold.ttf'
p848
aS'/usr/share/fonts/truetype/tlwg/Waree-Bold.ttf'
p849
aS'/usr/share/fonts/truetype/unfonts-core/UnGraphic.ttf'
p850
aS'/usr/share/fonts/truetype/lao/Phetsarath_OT.ttf'
p851
aS'/usr/share/fonts/truetype/unfonts-core/UnBatang.ttf'
p852
aS'/usr/share/fonts/truetype/ttf-indic-fonts-core/utkal.ttf'
p853
aS'/usr/share/fonts/truetype/kacst/KacstQurn.ttf'
p854
aS'/usr/share/fonts/truetype/ttf-indic-fonts-core/MuktiNarrow.ttf'
p855
aS'/usr/share/fonts/truetype/takao-gothic/TakaoPGothic.ttf'
p856
aS'/usr/share/fonts/truetype/kacst/KacstScreen.ttf'
p857
aS'/usr/share/fonts/truetype/ttf-indic-fonts-core/Kedage-b.ttf'
p858
aS'/usr/share/fonts/truetype/ttf-dejavu/DejaVuSerif-Bold.ttf'
p859
aS'/usr/share/fonts/truetype/ubuntu-font-family/UbuntuMono-R.ttf'
p860
aS'/usr/share/fonts/truetype/unfonts-core/UnDinaru.ttf'
p861
aS'/usr/share/fonts/truetype/tlwg/Norasi-Bold.ttf'
p862
aS'/usr/share/fonts/truetype/tlwg/Norasi-BoldItalic.ttf'
p863
aS'/usr/share/fonts/truetype/tlwg/Umpush-Bold.ttf'
p864
aS'/usr/share/fonts/truetype/tlwg/Kinnari-BoldOblique.ttf'
p865
aS'/usr/share/fonts/truetype/liberation/LiberationSans-BoldItalic.ttf'
p866
aS'/usr/share/fonts/truetype/unfonts-core/UnGraphicBold.ttf'
p867
aS'/usr/share/fonts/truetype/ttf-indic-fonts-core/Malige-n.ttf'
p868
aS'/usr/share/fonts/truetype/kacst/KacstNaskh.ttf'
p869
aS'/usr/share/fonts/truetype/ttf-indic-fonts-core/Rekha.ttf'
p870
aS'/usr/share/fonts/truetype/ttf-indic-fonts-core/Vemana.ttf'
p871
aS'/usr/share/fonts/truetype/tlwg/Norasi-BoldOblique.ttf'
p872
aS'/usr/share/fonts/truetype/tlwg/Kinnari-BoldItalic.ttf'
p873
aS'/usr/share/fonts/truetype/tlwg/Sawasdee.ttf'
p874
aS'/usr/share/fonts/truetype/kacst-one/KacstOne.ttf'
p875
aS'/usr/share/fonts/truetype/unfonts-core/UnDinaruBold.ttf'
p876
aS'/usr/share/fonts/truetype/freefont/FreeSansBold.ttf'
p877
aS'/usr/share/fonts/truetype/ttf-indic-fonts-core/lohit_bn.ttf'
p878
aS'/usr/share/fonts/truetype/ubuntu-font-family/UbuntuMono-RI.ttf'
p879
aS'/usr/share/fonts/truetype/liberation/LiberationSerif-Regular.ttf'
p880
aS'/usr/share/fonts/truetype/tlwg/Purisa-Bold.ttf'
p881
aS'/usr/share/fonts/truetype/freefont/FreeMonoBold.ttf'
p882
aS'/usr/share/fonts/truetype/ttf-dejavu/DejaVuSans-Bold.ttf'
p883
aS'/usr/share/fonts/truetype/tlwg/TlwgTypist-Bold.ttf'
p884
aS'/usr/share/fonts/truetype/ubuntu-font-family/Ubuntu-L.ttf'
p885
aS'/usr/share/fonts/truetype/kacst/KacstBook.ttf'
p886
aS'/usr/share/fonts/truetype/kacst/KacstFarsi.ttf'
p887
aS'/usr/share/fonts/truetype/kacst/KacstPoster.ttf'
p888
aS'/usr/share/fonts/truetype/tlwg/Purisa.ttf'
p889
aS'/usr/share/fonts/truetype/ubuntu-font-family/Ubuntu-LI.ttf'
p890
aS'/usr/share/fonts/truetype/ttf-punjabi-fonts/lohit_pa.ttf'
p891
aS'/usr/share/fonts/truetype/ttf-indic-fonts-core/Pothana2000.ttf'
p892
aS'/usr/share/fonts/truetype/tlwg/Umpush-Oblique.ttf'
p893
aS'/usr/share/fonts/truetype/nanum/NanumGothicBold.ttf'
p894
aS'/usr/share/fonts/truetype/liberation/LiberationMono-BoldItalic.ttf'
p895
aS'/usr/share/fonts/truetype/tlwg/Purisa-BoldOblique.ttf'
p896
aS'/usr/share/fonts/truetype/tlwg/Loma-BoldOblique.ttf'
p897
aS'/usr/share/fonts/truetype/unfonts-core/UnGungseo.ttf'
p898
aS'/usr/share/fonts/truetype/tlwg/TlwgTypewriter.ttf'
p899
aS'/usr/share/fonts/truetype/ttf-dejavu/DejaVuSans.ttf'
p900
aS'/usr/share/fonts/truetype/ubuntu-font-family/UbuntuMono-B.ttf'
p901
aS'/usr/share/fonts/truetype/ttf-lyx/esint10.ttf'
p902
aS'/usr/share/fonts/truetype/openoffice/opens___.ttf'
p903
aS'/usr/share/fonts/truetype/ttf-indic-fonts-core/gargi.ttf'
p904
aS'/usr/share/fonts/truetype/tlwg/Norasi-Italic.ttf'
p905
aS'/usr/share/fonts/truetype/ubuntu-font-family/Ubuntu-BI.ttf'
p906
aS'/usr/share/fonts/truetype/ttf-khmeros-core/KhmerOSsys.ttf'
p907
aS'/usr/share/fonts/truetype/tlwg/TlwgTypist-Oblique.ttf'
p908
aS'/usr/share/fonts/truetype/tlwg/Norasi.ttf'
p909
aS'/usr/share/fonts/truetype/ttf-indic-fonts-core/MuktiNarrowBold.ttf'
p910
aS'/usr/share/fonts/truetype/liberation/LiberationSans-Italic.ttf'
p911
aS'/usr/share/fonts/truetype/tlwg/Umpush-BoldOblique.ttf'
p912
aS'/usr/share/fonts/truetype/unfonts-core/UnPilgi.ttf'
p913
aS'/usr/share/fonts/truetype/freefont/FreeSansBoldOblique.ttf'
p914
aS'/usr/share/fonts/truetype/tlwg/TlwgTypo-Bold.ttf'
p915
aS'/usr/share/fonts/truetype/ubuntu-font-family/Ubuntu-RI.ttf'
p916
aS'/usr/share/fonts/truetype/tlwg/Waree-Oblique.ttf'
p917
aS'/usr/share/fonts/truetype/liberation/LiberationSerif-Italic.ttf'
p918
aS'/usr/share/fonts/truetype/tlwg/TlwgTypewriter-Bold.ttf'
p919
aS'/usr/share/fonts/truetype/tlwg/Waree-BoldOblique.ttf'
p920
aS'/usr/share/fonts/truetype/freefont/FreeSans.ttf'
p921
aS'/usr/share/fonts/truetype/tlwg/Kinnari-Oblique.ttf'
p922
aS'/usr/share/fonts/truetype/unfonts-core/UnDinaruLight.ttf'
p923
aS'/usr/share/fonts/truetype/ttf-dejavu/DejaVuSansMono-Bold.ttf'
p924
aS'/usr/share/fonts/truetype/freefont/FreeSerifBoldItalic.ttf'
p925
aS'/usr/share/fonts/truetype/kacst/KacstArt.ttf'
p926
aS'/usr/share/fonts/truetype/tlwg/Waree.ttf'
p927
aS'/usr/share/fonts/truetype/liberation/LiberationSansNarrow-BoldItalic.ttf'
p928
aS'/usr/share/fonts/truetype/tlwg/Umpush-Light.ttf'
p929
aS'/usr/share/fonts/truetype/unfonts-core/UnBatangBold.ttf'
p930
aS'/usr/share/fonts/truetype/ttf-indic-fonts-core/lohit_ta.ttf'
p931
aS'/usr/share/fonts/truetype/liberation/LiberationSans-Regular.ttf'
p932
aS'/usr/share/fonts/truetype/ubuntu-font-family/Ubuntu-C.ttf'
p933
aS'/usr/share/fonts/truetype/ttf-lyx/cmsy10.ttf'
p934
aS'/usr/share/fonts/truetype/tlwg/Kinnari.ttf'
p935
aS'/usr/share/fonts/truetype/ubuntu-font-family/UbuntuMono-BI.ttf'
p936
aS'/usr/share/fonts/truetype/tlwg/TlwgMono-BoldOblique.ttf'
p937
aS'/usr/share/fonts/truetype/ttf-indic-fonts-core/Kedage-n.ttf'
p938
aS'/usr/share/fonts/truetype/tlwg/Kinnari-Bold.ttf'
p939
aS'/usr/share/fonts/truetype/freefont/FreeMonoOblique.ttf'
p940
aS'/usr/share/fonts/truetype/tlwg/TlwgMono.ttf'
p941
aS'/usr/share/fonts/truetype/tlwg/TlwgTypewriter-BoldOblique.ttf'
p942
aS'/usr/share/fonts/truetype/freefont/FreeSerif.ttf'
p943
aS'/usr/share/fonts/truetype/liberation/LiberationSansNarrow-Regular.ttf'
p944
aS'/usr/share/fonts/truetype/tlwg/Purisa-Oblique.ttf'
p945
aS'/usr/share/fonts/truetype/tlwg/Kinnari-Italic.ttf'
p946
aS'/usr/share/fonts/truetype/tlwg/Sawasdee-BoldOblique.ttf'
p947
aS'/usr/share/fonts/truetype/tlwg/Sawasdee-Bold.ttf'
p948
aS'/usr/share/fonts/truetype/kacst/KacstDigital.ttf'
p949
aS'/usr/share/fonts/truetype/ttf-punjabi-fonts/Saab.ttf'
p950
aS'/usr/share/fonts/truetype/kacst/KacstOffice.ttf'
p951
aS'/usr/share/fonts/truetype/ttf-indic-fonts-core/lohit_gu.ttf'
p952
aS'/usr/share/fonts/truetype/tlwg/Sawasdee-Oblique.ttf'
p953
aS'/usr/share/fonts/truetype/nanum/NanumMyeongjo.ttf'
p954
aS'/usr/share/fonts/truetype/ttf-khmeros-core/KhmerOS.ttf'
p955
aS'/usr/share/fonts/truetype/unfonts-core/UnDotumBold.ttf'
p956
aS'/usr/share/fonts/truetype/tlwg/Loma.ttf'
p957
aS'/usr/share/fonts/truetype/tlwg/Garuda-Oblique.ttf'
p958
aS'/usr/share/fonts/truetype/tlwg/Loma-Bold.ttf'
p959
aS'/usr/share/fonts/truetype/unfonts-core/UnPilgiBold.ttf'
p960
aS'/usr/share/fonts/truetype/tlwg/Garuda-BoldOblique.ttf'
p961
aS'/usr/share/fonts/truetype/kacst/KacstLetter.ttf'
p962
aS'/usr/share/fonts/truetype/kacst/KacstPen.ttf'
p963
aS'/usr/share/fonts/truetype/tlwg/TlwgTypo-BoldOblique.ttf'
p964
aS'/usr/share/fonts/truetype/freefont/FreeMono.ttf'
p965
aS'/usr/share/fonts/truetype/ubuntu-font-family/Ubuntu-B.ttf'
p966
aS'/usr/share/fonts/truetype/freefont/Untitled1.ttf'
p967
aS'/usr/share/fonts/truetype/freefont/FreeSerifItalic.ttf'
p968
aS'/usr/share/fonts/truetype/kacst/KacstTitleL.ttf'
p969
aS'/usr/share/fonts/truetype/kacst/KacstDecorative.ttf'
p970
aS'/usr/share/fonts/truetype/tlwg/TlwgTypewriter-Oblique.ttf'
p971
aS'/usr/share/fonts/truetype/liberation/LiberationSansNarrow-Italic.ttf'
p972
aS'/usr/share/fonts/truetype/ttf-lyx/cmex10.ttf'
p973
asS'_FontManager__default_weight'
p974
g13
sS'_version'
p975
I7
sS'ttf_lookup_cache'
p976
(dp977
sS'default_size'
p978
NsS'defaultFont'
p979
(dp980
g776
Nsg778
g782
ssS'afmfiles'
p981
(lp982
S'/usr/share/matplotlib/mpl-data/fonts/afm/pagko8a.afm'
p983
aS'/usr/share/matplotlib/mpl-data/fonts/afm/pzcmi8a.afm'
p984
aS'/usr/share/matplotlib/mpl-data/fonts/pdfcorefonts/Helvetica.afm'
p985
aS'/usr/share/matplotlib/mpl-data/fonts/afm/pplb8a.afm'
p986
aS'/usr/share/matplotlib/mpl-data/fonts/afm/putbi8a.afm'
p987
aS'/usr/share/matplotlib/mpl-data/fonts/pdfcorefonts/Helvetica-BoldOblique.afm'
p988
aS'/usr/share/matplotlib/mpl-data/fonts/afm/phvro8an.afm'
p989
aS'/usr/share/matplotlib/mpl-data/fonts/afm/pbkd8a.afm'
p990
aS'/usr/share/matplotlib/mpl-data/fonts/afm/pcrbo8a.afm'
p991
aS'/usr/share/matplotlib/mpl-data/fonts/pdfcorefonts/Helvetica-Bold.afm'
p992
aS'/usr/share/matplotlib/mpl-data/fonts/pdfcorefonts/Times-BoldItalic.afm'
p993
aS'/usr/share/matplotlib/mpl-data/fonts/afm/putr8a.afm'
p994
aS'/usr/share/matplotlib/mpl-data/fonts/afm/phvr8a.afm'
p995
aS'/usr/share/matplotlib/mpl-data/fonts/afm/putb8a.afm'
p996
aS'/usr/share/matplotlib/mpl-data/fonts/afm/pncb8a.afm'
p997
aS'/usr/share/matplotlib/mpl-data/fonts/pdfcorefonts/Courier-Bold.afm'
p998
aS'/usr/share/matplotlib/mpl-data/fonts/afm/pncbi8a.afm'
p999
aS'/usr/share/matplotlib/mpl-data/fonts/afm/cmex10.afm'
p1000
aS'/usr/share/matplotlib/mpl-data/fonts/afm/cmtt10.afm'
p1001
aS'/usr/share/matplotlib/mpl-data/fonts/pdfcorefonts/Symbol.afm'
p1002
aS'/usr/share/matplotlib/mpl-data/fonts/afm/phvr8an.afm'
p1003
aS'/usr/share/matplotlib/mpl-data/fonts/afm/phvro8a.afm'
p1004
aS'/usr/share/matplotlib/mpl-data/fonts/afm/ptmr8a.afm'
p1005
aS'/usr/share/matplotlib/mpl-data/fonts/pdfcorefonts/Helvetica-Oblique.afm'
p1006
aS'/usr/share/matplotlib/mpl-data/fonts/afm/pplbi8a.afm'
p1007
aS'/usr/share/matplotlib/mpl-data/fonts/afm/phvb8an.afm'
p1008
aS'/usr/share/matplotlib/mpl-data/fonts/afm/cmsy10.afm'
p1009
aS'/usr/share/matplotlib/mpl-data/fonts/afm/pagk8a.afm'
p1010
aS'/usr/share/matplotlib/mpl-data/fonts/pdfcorefonts/Courier-BoldOblique.afm'
p1011
aS'/usr/share/matplotlib/mpl-data/fonts/afm/pcrr8a.afm'
p1012
aS'/usr/share/matplotlib/mpl-data/fonts/afm/cmmi10.afm'
p1013
aS'/usr/share/matplotlib/mpl-data/fonts/afm/phvl8a.afm'
p1014
aS'/usr/share/matplotlib/mpl-data/fonts/afm/phvbo8an.afm'
p1015
aS'/usr/share/matplotlib/mpl-data/fonts/afm/phvbo8a.afm'
p1016
aS'/usr/share/matplotlib/mpl-data/fonts/afm/cmr10.afm'
p1017
aS'/usr/share/matplotlib/mpl-data/fonts/pdfcorefonts/Times-Bold.afm'
p1018
aS'/usr/share/matplotlib/mpl-data/fonts/afm/pagdo8a.afm'
p1019
aS'/usr/share/matplotlib/mpl-data/fonts/afm/psyr.afm'
p1020
aS'/usr/share/matplotlib/mpl-data/fonts/afm/phvlo8a.afm'
p1021
aS'/usr/share/matplotlib/mpl-data/fonts/afm/phvb8a.afm'
p1022
aS'/usr/share/matplotlib/mpl-data/fonts/afm/pzdr.afm'
p1023
aS'/usr/share/matplotlib/mpl-data/fonts/afm/ptmri8a.afm'
p1024
aS'/usr/share/matplotlib/mpl-data/fonts/afm/pplr8a.afm'
p1025
aS'/usr/share/matplotlib/mpl-data/fonts/afm/pbkl8a.afm'
p1026
aS'/usr/share/matplotlib/mpl-data/fonts/afm/pcrro8a.afm'
p1027
aS'/usr/share/matplotlib/mpl-data/fonts/pdfcorefonts/ZapfDingbats.afm'
p1028
aS'/usr/share/matplotlib/mpl-data/fonts/afm/ptmb8a.afm'
p1029
aS'/usr/share/matplotlib/mpl-data/fonts/afm/putri8a.afm'
p1030
aS'/usr/share/matplotlib/mpl-data/fonts/afm/pplri8a.afm'
p1031
aS'/usr/share/matplotlib/mpl-data/fonts/afm/ptmbi8a.afm'
p1032
aS'/usr/share/matplotlib/mpl-data/fonts/afm/pbkli8a.afm'
p1033
aS'/usr/share/matplotlib/mpl-data/fonts/pdfcorefonts/Courier-Oblique.afm'
p1034
aS'/usr/share/matplotlib/mpl-data/fonts/afm/pcrb8a.afm'
p1035
aS'/usr/share/matplotlib/mpl-data/fonts/afm/pagd8a.afm'
p1036
aS'/usr/share/matplotlib/mpl-data/fonts/afm/pncr8a.afm'
p1037
aS'/usr/share/matplotlib/mpl-data/fonts/pdfcorefonts/Times-Italic.afm'
p1038
aS'/usr/share/matplotlib/mpl-data/fonts/pdfcorefonts/Times-Roman.afm'
p1039
aS'/usr/share/matplotlib/mpl-data/fonts/afm/pbkdi8a.afm'
p1040
aS'/usr/share/matplotlib/mpl-data/fonts/pdfcorefonts/Courier.afm'
p1041
aS'/usr/share/matplotlib/mpl-data/fonts/afm/pncri8a.afm'
p1042
aS'/usr/share/fonts/type1/gsfonts/n021024l.afm'
p1043
aS'/usr/share/fonts/X11/Type1/lmtt10.afm'
p1044
aS'/usr/share/fonts/type1/gsfonts/n021004l.afm'
p1045
aS'/usr/share/fonts/type1/gsfonts/c059016l.afm'
p1046
aS'/usr/share/fonts/type1/gsfonts/c059033l.afm'
p1047
aS'/usr/share/fonts/X11/Type1/lmbx10.afm'
p1048
aS'/usr/share/fonts/type1/gsfonts/d050000l.afm'
p1049
aS'/usr/share/fonts/X11/Type1/lmssdo10.afm'
p1050
aS'/usr/share/fonts/X11/Type1/lmssqbx8.afm'
p1051
aS'/usr/share/fonts/X11/Type1/lmssqo8.afm'
p1052
aS'/usr/share/fonts/type1/gsfonts/p052003l.afm'
p1053
aS'/usr/share/fonts/type1/gsfonts/b018012l.afm'
p1054
aS'/usr/share/fonts/X11/Type1/c0649bt_.afm'
p1055
aS'/usr/share/fonts/type1/gsfonts/n022023l.afm'
p1056
aS'/usr/share/fonts/type1/gsfonts/n019063l.afm'
p1057
aS'/usr/share/fonts/X11/Type1/lmssq8.afm'
p1058
aS'/usr/share/fonts/X11/Type1/lmvtko10.afm'
p1059
aS'/usr/share/fonts/X11/Type1/lmbxo10.afm'
p1060
aS'/usr/share/fonts/X11/Type1/c0648bt_.afm'
p1061
aS'/usr/share/fonts/type1/gsfonts/b018015l.afm'
p1062
aS'/usr/share/fonts/type1/gsfonts/a010035l.afm'
p1063
aS'/usr/share/fonts/X11/Type1/lmtcsc10.afm'
p1064
aS'/usr/share/fonts/X11/Type1/lmcsco10.afm'
p1065
aS'/usr/share/fonts/X11/Type1/lmtlc10.afm'
p1066
aS'/usr/share/fonts/type1/gsfonts/n019043l.afm'
p1067
aS'/usr/share/fonts/type1/gsfonts/n022024l.afm'
p1068
aS'/usr/share/fonts/X11/Type1/c0633bt_.afm'
p1069
aS'/usr/share/fonts/X11/Type1/lmvtto10.afm'
p1070
aS'/usr/share/fonts/X11/Type1/lmdunh10.afm'
p1071
aS'/usr/share/fonts/X11/Type1/lmss10.afm'
p1072
aS'/usr/share/fonts/type1/gsfonts/n019064l.afm'
p1073
aS'/usr/share/fonts/X11/Type1/lmvtt10.afm'
p1074
aS'/usr/share/fonts/type1/gsfonts/b018032l.afm'
p1075
aS'/usr/share/fonts/X11/Type1/lmssbo10.afm'
p1076
aS'/usr/share/fonts/type1/gsfonts/b018035l.afm'
p1077
aS'/usr/share/fonts/type1/gsfonts/p052024l.afm'
p1078
aS'/usr/share/fonts/X11/Type1/lmduno10.afm'
p1079
aS'/usr/share/fonts/type1/gsfonts/z003034l.afm'
p1080
aS'/usr/share/fonts/type1/gsfonts/n019044l.afm'
p1081
aS'/usr/share/fonts/X11/Type1/lmbxi10.afm'
p1082
aS'/usr/share/fonts/X11/Type1/c0582bt_.afm'
p1083
aS'/usr/share/fonts/type1/gsfonts/p052004l.afm'
p1084
aS'/usr/share/fonts/type1/gsfonts/c059036l.afm'
p1085
aS'/usr/share/fonts/type1/gsfonts/n019003l.afm'
p1086
aS'/usr/share/fonts/type1/gsfonts/n022004l.afm'
p1087
aS'/usr/share/fonts/X11/Type1/c0583bt_.afm'
p1088
aS'/usr/share/fonts/X11/Type1/lmvtl10.afm'
p1089
aS'/usr/share/fonts/X11/Type1/lmtti10.afm'
p1090
aS'/usr/share/fonts/X11/Type1/lmro10.afm'
p1091
aS'/usr/share/fonts/type1/gsfonts/n021003l.afm'
p1092
aS'/usr/share/fonts/X11/Type1/lmcsc10.afm'
p1093
aS'/usr/share/fonts/type1/gsfonts/n019023l.afm'
p1094
aS'/usr/share/fonts/X11/Type1/lmtko10.afm'
p1095
aS'/usr/share/fonts/type1/mathml/Symbol.afm'
p1096
aS'/usr/share/fonts/X11/Type1/lmsso10.afm'
p1097
aS'/usr/share/fonts/X11/Type1/lmbo10.afm'
p1098
aS'/usr/share/fonts/type1/gsfonts/p052023l.afm'
p1099
aS'/usr/share/fonts/X11/Type1/lmri10.afm'
p1100
aS'/usr/share/fonts/X11/Type1/Symbol.afm'
p1101
aS'/usr/share/fonts/X11/Type1/lmssqbo8.afm'
p1102
aS'/usr/share/fonts/type1/gsfonts/c059013l.afm'
p1103
aS'/usr/share/fonts/X11/Type1/lmr10.afm'
p1104
aS'/usr/share/fonts/X11/Type1/lmb10.afm'
p1105
aS'/usr/share/fonts/type1/gsfonts/a010013l.afm'
p1106
aS'/usr/share/fonts/X11/Type1/lmtk10.afm'
p1107
aS'/usr/share/fonts/X11/Type1/lmssdc10.afm'
p1108
aS'/usr/share/fonts/X11/Type1/lmssbx10.afm'
p1109
aS'/usr/share/fonts/type1/gsfonts/n019024l.afm'
p1110
aS'/usr/share/fonts/X11/Type1/lmvtk10.afm'
p1111
aS'/usr/share/fonts/type1/gsfonts/n022003l.afm'
p1112
aS'/usr/share/fonts/X11/Type1/lmtto10.afm'
p1113
aS'/usr/share/fonts/type1/gsfonts/s050000l.afm'
p1114
aS'/usr/share/fonts/X11/Type1/lmvtlo10.afm'
p1115
aS'/usr/share/fonts/type1/gsfonts/n021023l.afm'
p1116
aS'/usr/share/fonts/X11/Type1/lmtlo10.afm'
p1117
aS'/usr/share/fonts/type1/gsfonts/a010033l.afm'
p1118
aS'/usr/share/fonts/type1/gsfonts/a010015l.afm'
p1119
aS'/usr/share/fonts/X11/Type1/lmtcso10.afm'
p1120
aS'/usr/share/fonts/X11/Type1/lmtl10.afm'
p1121
aS'/usr/share/fonts/X11/Type1/c0611bt_.afm'
p1122
aS'/usr/share/fonts/type1/gsfonts/n019004l.afm'
p1123
aS'/usr/share/fonts/X11/Type1/lmu10.afm'
p1124
aS'/usr/share/fonts/X11/Type1/lmtlco10.afm'
p1125
aS'/usr/share/fonts/X11/Type1/c0632bt_.afm'
p1126
aS'/usr/share/fonts/X11/Type1/c0419bt_.afm'
p1127
asS'afmlist'
p1128
(lp1129
g7
(g8
g9
NtRp1130
(dp1131
g12
g29
sg14
S'ITC Avant Garde Gothic'
p1132
sg16
I400
sg17
g13
sg18
g13
sg19
g983
sg21
g22
sbag7
(g8
g9
NtRp1133
(dp1134
g12
g29
sg14
S'ITC Zapf Chancery'
p1135
sg16
I500
sg17
g13
sg18
g13
sg19
g984
sg21
g22
sbag7
(g8
g9
NtRp1136
(dp1137
g12
g13
sg14
S'Helvetica'
p1138
sg16
I500
sg17
g13
sg18
g13
sg19
g985
sg21
g22
sbag7
(g8
g9
NtRp1139
(dp1140
g12
g13
sg14
S'Palatino'
p1141
sg16
I700
sg17
g13
sg18
g13
sg19
g986
sg21
g22
sbag7
(g8
g9
NtRp1142
(dp1143
g12
g29
sg14
S'Utopia'
p1144
sg16
I700
sg17
g13
sg18
g13
sg19
g987
sg21
g22
sbag7
(g8
g9
NtRp1145
(dp1146
g12
g29
sg14
S'Helvetica'
p1147
sg16
I700
sg17
g13
sg18
g13
sg19
g988
sg21
g22
sbag7
(g8
g9
NtRp1148
(dp1149
g12
g29
sg14
S'Helvetica'
p1150
sg16
I500
sg17
g204
sg18
g13
sg19
g989
sg21
g22
sbag7
(g8
g9
NtRp1151
(dp1152
g12
g13
sg14
S'ITC Bookman'
p1153
sg16
I600
sg17
g13
sg18
g13
sg19
g990
sg21
g22
sbag7
(g8
g9
NtRp1154
(dp1155
g12
g29
sg14
S'Courier'
p1156
sg16
I700
sg17
g13
sg18
g13
sg19
g991
sg21
g22
sbag7
(g8
g9
NtRp1157
(dp1158
g12
g13
sg14
S'Helvetica'
p1159
sg16
I700
sg17
g13
sg18
g13
sg19
g992
sg21
g22
sbag7
(g8
g9
NtRp1160
(dp1161
g12
g29
sg14
S'Times'
p1162
sg16
I700
sg17
g13
sg18
g13
sg19
g993
sg21
g22
sbag7
(g8
g9
NtRp1163
(dp1164
g12
g13
sg14
S'Utopia'
p1165
sg16
I400
sg17
g13
sg18
g13
sg19
g994
sg21
g22
sbag7
(g8
g9
NtRp1166
(dp1167
g12
g13
sg14
S'Helvetica'
p1168
sg16
I500
sg17
g13
sg18
g13
sg19
g995
sg21
g22
sbag7
(g8
g9
NtRp1169
(dp1170
g12
g13
sg14
S'Utopia'
p1171
sg16
I700
sg17
g13
sg18
g13
sg19
g996
sg21
g22
sbag7
(g8
g9
NtRp1172
(dp1173
g12
g13
sg14
S'New Century Schoolbook'
p1174
sg16
I700
sg17
g13
sg18
g13
sg19
g997
sg21
g22
sbag7
(g8
g9
NtRp1175
(dp1176
g12
g13
sg14
S'Courier'
p1177
sg16
I700
sg17
g13
sg18
g13
sg19
g998
sg21
g22
sbag7
(g8
g9
NtRp1178
(dp1179
g12
g29
sg14
S'New Century Schoolbook'
p1180
sg16
I700
sg17
g13
sg18
g13
sg19
g999
sg21
g22
sbag7
(g8
g9
NtRp1181
(dp1182
g12
g13
sg14
S'Computer Modern'
p1183
sg16
I500
sg17
g13
sg18
g13
sg19
g1000
sg21
g22
sbag7
(g8
g9
NtRp1184
(dp1185
g12
g13
sg14
S'Computer Modern'
p1186
sg16
I500
sg17
g13
sg18
g13
sg19
g1001
sg21
g22
sbag7
(g8
g9
NtRp1187
(dp1188
g12
g13
sg14
S'Symbol'
p1189
sg16
I500
sg17
g13
sg18
g13
sg19
g1002
sg21
g22
sbag7
(g8
g9
NtRp1190
(dp1191
g12
g13
sg14
S'Helvetica'
p1192
sg16
I500
sg17
g204
sg18
g13
sg19
g1003
sg21
g22
sbag7
(g8
g9
NtRp1193
(dp1194
g12
g29
sg14
S'Helvetica'
p1195
sg16
I500
sg17
g13
sg18
g13
sg19
g1004
sg21
g22
sbag7
(g8
g9
NtRp1196
(dp1197
g12
g13
sg14
S'Times'
p1198
sg16
I500
sg17
g13
sg18
g13
sg19
g1005
sg21
g22
sbag7
(g8
g9
NtRp1199
(dp1200
g12
g29
sg14
S'Helvetica'
p1201
sg16
I500
sg17
g13
sg18
g13
sg19
g1006
sg21
g22
sbag7
(g8
g9
NtRp1202
(dp1203
g12
g29
sg14
S'Palatino'
p1204
sg16
I700
sg17
g13
sg18
g13
sg19
g1007
sg21
g22
sbag7
(g8
g9
NtRp1205
(dp1206
g12
g13
sg14
S'Helvetica'
p1207
sg16
I700
sg17
g204
sg18
g13
sg19
g1008
sg21
g22
sbag7
(g8
g9
NtRp1208
(dp1209
g12
g29
sg14
S'Computer Modern'
p1210
sg16
I500
sg17
g13
sg18
g13
sg19
g1009
sg21
g22
sbag7
(g8
g9
NtRp1211
(dp1212
g12
g13
sg14
S'ITC Avant Garde Gothic'
p1213
sg16
I400
sg17
g13
sg18
g13
sg19
g1010
sg21
g22
sbag7
(g8
g9
NtRp1214
(dp1215
g12
g29
sg14
S'Courier'
p1216
sg16
I700
sg17
g13
sg18
g13
sg19
g1011
sg21
g22
sbag7
(g8
g9
NtRp1217
(dp1218
g12
g13
sg14
S'Courier'
p1219
sg16
I500
sg17
g13
sg18
g13
sg19
g1012
sg21
g22
sbag7
(g8
g9
NtRp1220
(dp1221
g12
g29
sg14
S'Computer Modern'
p1222
sg16
I500
sg17
g13
sg18
g13
sg19
g1013
sg21
g22
sbag7
(g8
g9
NtRp1223
(dp1224
g12
g13
sg14
S'Helvetica'
p1225
sg16
I200
sg17
g13
sg18
g13
sg19
g1014
sg21
g22
sbag7
(g8
g9
NtRp1226
(dp1227
g12
g29
sg14
S'Helvetica'
p1228
sg16
I700
sg17
g204
sg18
g13
sg19
g1015
sg21
g22
sbag7
(g8
g9
NtRp1229
(dp1230
g12
g29
sg14
S'Helvetica'
p1231
sg16
I700
sg17
g13
sg18
g13
sg19
g1016
sg21
g22
sbag7
(g8
g9
NtRp1232
(dp1233
g12
g13
sg14
S'Computer Modern'
p1234
sg16
I500
sg17
g13
sg18
g13
sg19
g1017
sg21
g22
sbag7
(g8
g9
NtRp1235
(dp1236
g12
g13
sg14
S'Times'
p1237
sg16
I700
sg17
g13
sg18
g13
sg19
g1018
sg21
g22
sbag7
(g8
g9
NtRp1238
(dp1239
g12
g29
sg14
S'ITC Avant Garde Gothic'
p1240
sg16
I600
sg17
g13
sg18
g13
sg19
g1019
sg21
g22
sbag7
(g8
g9
NtRp1241
(dp1242
g12
g13
sg14
S'Symbol'
p1243
sg16
I500
sg17
g13
sg18
g13
sg19
g1020
sg21
g22
sbag7
(g8
g9
NtRp1244
(dp1245
g12
g29
sg14
S'Helvetica'
p1246
sg16
I200
sg17
g13
sg18
g13
sg19
g1021
sg21
g22
sbag7
(g8
g9
NtRp1247
(dp1248
g12
g13
sg14
S'Helvetica'
p1249
sg16
I700
sg17
g13
sg18
g13
sg19
g1022
sg21
g22
sbag7
(g8
g9
NtRp1250
(dp1251
g12
g13
sg14
S'ITC Zapf Dingbats'
p1252
sg16
I500
sg17
g13
sg18
g13
sg19
g1023
sg21
g22
sbag7
(g8
g9
NtRp1253
(dp1254
g12
g29
sg14
S'Times'
p1255
sg16
I500
sg17
g13
sg18
g13
sg19
g1024
sg21
g22
sbag7
(g8
g9
NtRp1256
(dp1257
g12
g13
sg14
S'Palatino'
p1258
sg16
I500
sg17
g13
sg18
g13
sg19
g1025
sg21
g22
sbag7
(g8
g9
NtRp1259
(dp1260
g12
g13
sg14
S'ITC Bookman'
p1261
sg16
I200
sg17
g13
sg18
g13
sg19
g1026
sg21
g22
sbag7
(g8
g9
NtRp1262
(dp1263
g12
g29
sg14
S'Courier'
p1264
sg16
I500
sg17
g13
sg18
g13
sg19
g1027
sg21
g22
sbag7
(g8
g9
NtRp1265
(dp1266
g12
g13
sg14
S'ZapfDingbats'
p1267
sg16
I500
sg17
g13
sg18
g13
sg19
g1028
sg21
g22
sbag7
(g8
g9
NtRp1268
(dp1269
g12
g13
sg14
S'Times'
p1270
sg16
I700
sg17
g13
sg18
g13
sg19
g1029
sg21
g22
sbag7
(g8
g9
NtRp1271
(dp1272
g12
g29
sg14
S'Utopia'
p1273
sg16
I400
sg17
g13
sg18
g13
sg19
g1030
sg21
g22
sbag7
(g8
g9
NtRp1274
(dp1275
g12
g29
sg14
S'Palatino'
p1276
sg16
I500
sg17
g13
sg18
g13
sg19
g1031
sg21
g22
sbag7
(g8
g9
NtRp1277
(dp1278
g12
g29
sg14
S'Times'
p1279
sg16
I700
sg17
g13
sg18
g13
sg19
g1032
sg21
g22
sbag7
(g8
g9
NtRp1280
(dp1281
g12
g29
sg14
S'ITC Bookman'
p1282
sg16
I200
sg17
g13
sg18
g13
sg19
g1033
sg21
g22
sbag7
(g8
g9
NtRp1283
(dp1284
g12
g29
sg14
S'Courier'
p1285
sg16
I500
sg17
g13
sg18
g13
sg19
g1034
sg21
g22
sbag7
(g8
g9
NtRp1286
(dp1287
g12
g13
sg14
S'Courier'
p1288
sg16
I700
sg17
g13
sg18
g13
sg19
g1035
sg21
g22
sbag7
(g8
g9
NtRp1289
(dp1290
g12
g13
sg14
S'ITC Avant Garde Gothic'
p1291
sg16
I600
sg17
g13
sg18
g13
sg19
g1036
sg21
g22
sbag7
(g8
g9
NtRp1292
(dp1293
g12
g13
sg14
S'New Century Schoolbook'
p1294
sg16
I500
sg17
g13
sg18
g13
sg19
g1037
sg21
g22
sbag7
(g8
g9
NtRp1295
(dp1296
g12
g29
sg14
S'Times'
p1297
sg16
I500
sg17
g13
sg18
g13
sg19
g1038
sg21
g22
sbag7
(g8
g9
NtRp1298
(dp1299
g12
g13
sg14
S'Times'
p1300
sg16
I500
sg17
g13
sg18
g13
sg19
g1039
sg21
g22
sbag7
(g8
g9
NtRp1301
(dp1302
g12
g29
sg14
S'ITC Bookman'
p1303
sg16
I600
sg17
g13
sg18
g13
sg19
g1040
sg21
g22
sbag7
(g8
g9
NtRp1304
(dp1305
g12
g13
sg14
S'Courier'
p1306
sg16
I500
sg17
g13
sg18
g13
sg19
g1041
sg21
g22
sbag7
(g8
g9
NtRp1307
(dp1308
g12
g29
sg14
S'New Century Schoolbook'
p1309
sg16
I500
sg17
g13
sg18
g13
sg19
g1042
sg21
g22
sbag7
(g8
g9
NtRp1310
(dp1311
g12
g29
sg14
S'Nimbus Roman No9 L'
p1312
sg16
I700
sg17
g13
sg18
g13
sg19
g1043
sg21
g22
sbag7
(g8
g9
NtRp1313
(dp1314
g12
g13
sg14
S'LMMono10'
p1315
sg16
I400
sg17
g13
sg18
g13
sg19
g1044
sg21
g22
sbag7
(g8
g9
NtRp1316
(dp1317
g12
g13
sg14
S'Nimbus Roman No9 L'
p1318
sg16
I700
sg17
g13
sg18
g13
sg19
g1045
sg21
g22
sbag7
(g8
g9
NtRp1319
(dp1320
g12
g13
sg14
S'Century Schoolbook L'
p1321
sg16
I700
sg17
g13
sg18
g13
sg19
g1046
sg21
g22
sbag7
(g8
g9
NtRp1322
(dp1323
g12
g29
sg14
S'Century Schoolbook L'
p1324
sg16
I400
sg17
g13
sg18
g13
sg19
g1047
sg21
g22
sbag7
(g8
g9
NtRp1325
(dp1326
g12
g13
sg14
S'LMRoman10'
p1327
sg16
I700
sg17
g13
sg18
g13
sg19
g1048
sg21
g22
sbag7
(g8
g9
NtRp1328
(dp1329
g12
g13
sg14
S'Dingbats'
p1330
sg16
I400
sg17
g13
sg18
g13
sg19
g1049
sg21
g22
sbag7
(g8
g9
NtRp1331
(dp1332
g12
g29
sg14
S'LMSansDemiCond10'
p1333
sg16
I600
sg17
g204
sg18
g13
sg19
g1050
sg21
g22
sbag7
(g8
g9
NtRp1334
(dp1335
g12
g13
sg14
S'LMSansQuot8'
p1336
sg16
I700
sg17
g13
sg18
g13
sg19
g1051
sg21
g22
sbag7
(g8
g9
NtRp1337
(dp1338
g12
g29
sg14
S'LMSansQuot8'
p1339
sg16
I400
sg17
g13
sg18
g13
sg19
g1052
sg21
g22
sbag7
(g8
g9
NtRp1340
(dp1341
g12
g13
sg14
S'URW Palladio L'
p1342
sg16
I500
sg17
g13
sg18
g13
sg19
g1053
sg21
g22
sbag7
(g8
g9
NtRp1343
(dp1344
g12
g13
sg14
S'URW Bookman L'
p1345
sg16
I400
sg17
g13
sg18
g13
sg19
g1054
sg21
g22
sbag7
(g8
g9
NtRp1346
(dp1347
g12
g29
sg14
S'Bitstream Charter'
p1348
sg16
I400
sg17
g13
sg18
g13
sg19
g1055
sg21
g22
sbag7
(g8
g9
NtRp1349
(dp1350
g12
g29
sg14
S'Nimbus Mono L'
p1351
sg16
I400
sg17
g13
sg18
g13
sg19
g1056
sg21
g22
sbag7
(g8
g9
NtRp1352
(dp1353
g12
g29
sg14
S'Nimbus Sans L'
p1354
sg16
I400
sg17
g204
sg18
g13
sg19
g1057
sg21
g22
sbag7
(g8
g9
NtRp1355
(dp1356
g12
g13
sg14
S'LMSansQuot8'
p1357
sg16
I400
sg17
g13
sg18
g13
sg19
g1058
sg21
g22
sbag7
(g8
g9
NtRp1358
(dp1359
g12
g29
sg14
S'LMMonoPropLt10'
p1360
sg16
I700
sg17
g13
sg18
g13
sg19
g1059
sg21
g22
sbag7
(g8
g9
NtRp1361
(dp1362
g12
g29
sg14
S'LMRomanSlant10'
p1363
sg16
I700
sg17
g13
sg18
g13
sg19
g1060
sg21
g22
sbag7
(g8
g9
NtRp1364
(dp1365
g12
g13
sg14
S'Bitstream Charter'
p1366
sg16
I400
sg17
g13
sg18
g13
sg19
g1061
sg21
g22
sbag7
(g8
g9
NtRp1367
(dp1368
g12
g13
sg14
S'URW Bookman L'
p1369
sg16
I700
sg17
g13
sg18
g13
sg19
g1062
sg21
g22
sbag7
(g8
g9
NtRp1370
(dp1371
g12
g29
sg14
S'URW Gothic L'
p1372
sg16
I600
sg17
g13
sg18
g13
sg19
g1063
sg21
g22
sbag7
(g8
g9
NtRp1373
(dp1374
g12
g13
sg14
S'LMMonoCaps10'
p1375
sg16
I400
sg17
g13
sg18
g13
sg19
g1064
sg21
g22
sbag7
(g8
g9
NtRp1376
(dp1377
g12
g29
sg14
S'LMRomanCaps10'
p1378
sg16
I400
sg17
g13
sg18
g13
sg19
g1065
sg21
g22
sbag7
(g8
g9
NtRp1379
(dp1380
g12
g13
sg14
S'LMMonoLtCond10'
p1381
sg16
I200
sg17
g204
sg18
g13
sg19
g1066
sg21
g22
sbag7
(g8
g9
NtRp1382
(dp1383
g12
g13
sg14
S'Nimbus Sans L'
p1384
sg16
I400
sg17
g204
sg18
g13
sg19
g1067
sg21
g22
sbag7
(g8
g9
NtRp1385
(dp1386
g12
g29
sg14
S'Nimbus Mono L'
p1387
sg16
I700
sg17
g13
sg18
g13
sg19
g1068
sg21
g22
sbag7
(g8
g9
NtRp1388
(dp1389
g12
g29
sg14
S'Bitstream Charter'
p1390
sg16
I700
sg17
g13
sg18
g13
sg19
g1069
sg21
g22
sbag7
(g8
g9
NtRp1391
(dp1392
g12
g29
sg14
S'LMMonoProp10'
p1393
sg16
I400
sg17
g13
sg18
g13
sg19
g1070
sg21
g22
sbag7
(g8
g9
NtRp1394
(dp1395
g12
g13
sg14
S'LMRomanDunh10'
p1396
sg16
I400
sg17
g13
sg18
g13
sg19
g1071
sg21
g22
sbag7
(g8
g9
NtRp1397
(dp1398
g12
g13
sg14
S'LMSans10'
p1399
sg16
I400
sg17
g13
sg18
g13
sg19
g1072
sg21
g22
sbag7
(g8
g9
NtRp1400
(dp1401
g12
g29
sg14
S'Nimbus Sans L'
p1402
sg16
I700
sg17
g204
sg18
g13
sg19
g1073
sg21
g22
sbag7
(g8
g9
NtRp1403
(dp1404
g12
g13
sg14
S'LMMonoProp10'
p1405
sg16
I400
sg17
g13
sg18
g13
sg19
g1074
sg21
g22
sbag7
(g8
g9
NtRp1406
(dp1407
g12
g29
sg14
S'URW Bookman L'
p1408
sg16
I400
sg17
g13
sg18
g13
sg19
g1075
sg21
g22
sbag7
(g8
g9
NtRp1409
(dp1410
g12
g29
sg14
S'LMSans10'
p1411
sg16
I700
sg17
g13
sg18
g13
sg19
g1076
sg21
g22
sbag7
(g8
g9
NtRp1412
(dp1413
g12
g29
sg14
S'URW Bookman L'
p1414
sg16
I700
sg17
g13
sg18
g13
sg19
g1077
sg21
g22
sbag7
(g8
g9
NtRp1415
(dp1416
g12
g29
sg14
S'URW Palladio L'
p1417
sg16
I700
sg17
g13
sg18
g13
sg19
g1078
sg21
g22
sbag7
(g8
g9
NtRp1418
(dp1419
g12
g29
sg14
S'LMRomanDunh10'
p1420
sg16
I400
sg17
g13
sg18
g13
sg19
g1079
sg21
g22
sbag7
(g8
g9
NtRp1421
(dp1422
g12
g29
sg14
S'URW Chancery L'
p1423
sg16
I500
sg17
g13
sg18
g13
sg19
g1080
sg21
g22
sbag7
(g8
g9
NtRp1424
(dp1425
g12
g13
sg14
S'Nimbus Sans L'
p1426
sg16
I700
sg17
g204
sg18
g13
sg19
g1081
sg21
g22
sbag7
(g8
g9
NtRp1427
(dp1428
g12
g29
sg14
S'LMRoman10'
p1429
sg16
I700
sg17
g13
sg18
g13
sg19
g1082
sg21
g22
sbag7
(g8
g9
NtRp1430
(dp1431
g12
g29
sg14
S'Courier 10 Pitch'
p1432
sg16
I400
sg17
g13
sg18
g13
sg19
g1083
sg21
g22
sbag7
(g8
g9
NtRp1433
(dp1434
g12
g13
sg14
S'URW Palladio L'
p1435
sg16
I700
sg17
g13
sg18
g13
sg19
g1084
sg21
g22
sbag7
(g8
g9
NtRp1436
(dp1437
g12
g29
sg14
S'Century Schoolbook L'
p1438
sg16
I700
sg17
g13
sg18
g13
sg19
g1085
sg21
g22
sbag7
(g8
g9
NtRp1439
(dp1440
g12
g13
sg14
S'Nimbus Sans L'
p1441
sg16
I400
sg17
g13
sg18
g13
sg19
g1086
sg21
g22
sbag7
(g8
g9
NtRp1442
(dp1443
g12
g13
sg14
S'Nimbus Mono L'
p1444
sg16
I700
sg17
g13
sg18
g13
sg19
g1087
sg21
g22
sbag7
(g8
g9
NtRp1445
(dp1446
g12
g13
sg14
S'Courier 10 Pitch'
p1447
sg16
I700
sg17
g13
sg18
g13
sg19
g1088
sg21
g22
sbag7
(g8
g9
NtRp1448
(dp1449
g12
g13
sg14
S'LMMonoPropLt10'
p1450
sg16
I200
sg17
g13
sg18
g13
sg19
g1089
sg21
g22
sbag7
(g8
g9
NtRp1451
(dp1452
g12
g29
sg14
S'LMMono10'
p1453
sg16
I400
sg17
g13
sg18
g13
sg19
g1090
sg21
g22
sbag7
(g8
g9
NtRp1454
(dp1455
g12
g29
sg14
S'LMRomanSlant10'
p1456
sg16
I400
sg17
g13
sg18
g13
sg19
g1091
sg21
g22
sbag7
(g8
g9
NtRp1457
(dp1458
g12
g13
sg14
S'Nimbus Roman No9 L'
p1459
sg16
I400
sg17
g13
sg18
g13
sg19
g1092
sg21
g22
sbag7
(g8
g9
NtRp1460
(dp1461
g12
g13
sg14
S'LMRomanCaps10'
p1462
sg16
I400
sg17
g13
sg18
g13
sg19
g1093
sg21
g22
sbag7
(g8
g9
NtRp1463
(dp1464
g12
g29
sg14
S'Nimbus Sans L'
p1465
sg16
I400
sg17
g13
sg18
g13
sg19
g1094
sg21
g22
sbag7
(g8
g9
NtRp1466
(dp1467
g12
g29
sg14
S'LMMonoLt10'
p1468
sg16
I700
sg17
g13
sg18
g13
sg19
g1095
sg21
g22
sbag7
(g8
g9
NtRp1469
(dp1470
g12
g29
sg14
S'LMSans10'
p1471
sg16
I400
sg17
g13
sg18
g13
sg19
g1097
sg21
g22
sbag7
(g8
g9
NtRp1472
(dp1473
g12
g29
sg14
S'LMRomanDemi10'
p1474
sg16
I600
sg17
g13
sg18
g13
sg19
g1098
sg21
g22
sbag7
(g8
g9
NtRp1475
(dp1476
g12
g29
sg14
S'URW Palladio L'
p1477
sg16
I400
sg17
g13
sg18
g13
sg19
g1099
sg21
g22
sbag7
(g8
g9
NtRp1478
(dp1479
g12
g29
sg14
S'LMRoman10'
p1480
sg16
I400
sg17
g13
sg18
g13
sg19
g1100
sg21
g22
sbag7
(g8
g9
NtRp1481
(dp1482
g12
g29
sg14
S'LMSansQuot8'
p1483
sg16
I700
sg17
g13
sg18
g13
sg19
g1102
sg21
g22
sbag7
(g8
g9
NtRp1484
(dp1485
g12
g13
sg14
S'Century Schoolbook L'
p1486
sg16
I500
sg17
g13
sg18
g13
sg19
g1103
sg21
g22
sbag7
(g8
g9
NtRp1487
(dp1488
g12
g13
sg14
S'LMRoman10'
p1489
sg16
I400
sg17
g13
sg18
g13
sg19
g1104
sg21
g22
sbag7
(g8
g9
NtRp1490
(dp1491
g12
g13
sg14
S'LMRomanDemi10'
p1492
sg16
I600
sg17
g13
sg18
g13
sg19
g1105
sg21
g22
sbag7
(g8
g9
NtRp1493
(dp1494
g12
g13
sg14
S'URW Gothic L'
p1495
sg16
I400
sg17
g13
sg18
g13
sg19
g1106
sg21
g22
sbag7
(g8
g9
NtRp1496
(dp1497
g12
g13
sg14
S'LMMonoLt10'
p1498
sg16
I700
sg17
g13
sg18
g13
sg19
g1107
sg21
g22
sbag7
(g8
g9
NtRp1499
(dp1500
g12
g13
sg14
S'LMSansDemiCond10'
p1501
sg16
I600
sg17
g204
sg18
g13
sg19
g1108
sg21
g22
sbag7
(g8
g9
NtRp1502
(dp1503
g12
g13
sg14
S'LMSans10'
p1504
sg16
I700
sg17
g13
sg18
g13
sg19
g1109
sg21
g22
sbag7
(g8
g9
NtRp1505
(dp1506
g12
g29
sg14
S'Nimbus Sans L'
p1507
sg16
I700
sg17
g13
sg18
g13
sg19
g1110
sg21
g22
sbag7
(g8
g9
NtRp1508
(dp1509
g12
g13
sg14
S'LMMonoPropLt10'
p1510
sg16
I700
sg17
g13
sg18
g13
sg19
g1111
sg21
g22
sbag7
(g8
g9
NtRp1511
(dp1512
g12
g13
sg14
S'Nimbus Mono L'
p1513
sg16
I400
sg17
g13
sg18
g13
sg19
g1112
sg21
g22
sbag7
(g8
g9
NtRp1514
(dp1515
g12
g29
sg14
S'LMMonoSlant10'
p1516
sg16
I400
sg17
g13
sg18
g13
sg19
g1113
sg21
g22
sbag7
(g8
g9
NtRp1517
(dp1518
g12
g13
sg14
S'Standard Symbols L'
p1519
sg16
I400
sg17
g13
sg18
g13
sg19
g1114
sg21
g22
sbag7
(g8
g9
NtRp1520
(dp1521
g12
g29
sg14
S'LMMonoPropLt10'
p1522
sg16
I200
sg17
g13
sg18
g13
sg19
g1115
sg21
g22
sbag7
(g8
g9
NtRp1523
(dp1524
g12
g29
sg14
S'Nimbus Roman No9 L'
p1525
sg16
I400
sg17
g13
sg18
g13
sg19
g1116
sg21
g22
sbag7
(g8
g9
NtRp1526
(dp1527
g12
g29
sg14
S'LMMonoLt10'
p1528
sg16
I200
sg17
g13
sg18
g13
sg19
g1117
sg21
g22
sbag7
(g8
g9
NtRp1529
(dp1530
g12
g29
sg14
S'URW Gothic L'
p1531
sg16
I400
sg17
g13
sg18
g13
sg19
g1118
sg21
g22
sbag7
(g8
g9
NtRp1532
(dp1533
g12
g13
sg14
S'URW Gothic L'
p1534
sg16
I600
sg17
g13
sg18
g13
sg19
g1119
sg21
g22
sbag7
(g8
g9
NtRp1535
(dp1536
g12
g29
sg14
S'LMMonoCaps10'
p1537
sg16
I400
sg17
g13
sg18
g13
sg19
g1120
sg21
g22
sbag7
(g8
g9
NtRp1538
(dp1539
g12
g13
sg14
S'LMMonoLt10'
p1540
sg16
I200
sg17
g13
sg18
g13
sg19
g1121
sg21
g22
sbag7
(g8
g9
NtRp1541
(dp1542
g12
g29
sg14
S'Courier 10 Pitch'
p1543
sg16
I700
sg17
g13
sg18
g13
sg19
g1122
sg21
g22
sbag7
(g8
g9
NtRp1544
(dp1545
g12
g13
sg14
S'Nimbus Sans L'
p1546
sg16
I700
sg17
g13
sg18
g13
sg19
g1123
sg21
g22
sbag7
(g8
g9
NtRp1547
(dp1548
g12
g13
sg14
S'LMRomanUnsl10'
p1549
sg16
I400
sg17
g13
sg18
g13
sg19
g1124
sg21
g22
sbag7
(g8
g9
NtRp1550
(dp1551
g12
g29
sg14
S'LMMonoLtCond10'
p1552
sg16
I200
sg17
g204
sg18
g13
sg19
g1125
sg21
g22
sbag7
(g8
g9
NtRp1553
(dp1554
g12
g13
sg14
S'Bitstream Charter'
p1555
sg16
I700
sg17
g13
sg18
g13
sg19
g1126
sg21
g22
sbag7
(g8
g9
NtRp1556
(dp1557
g12
g13
sg14
S'Courier 10 Pitch'
p1558
sg16
I400
sg17
g13
sg18
g13
sg19
g1127
sg21
g22
sbasb.